Certificate:
    Data:
        Version: 1 (0x0)
        Serial Number:
            0c:26:15:df:8f:71:1d:6a:31:d0:da:af:64:ef:80:de:ac:9a:46:78
        Signature Algorithm: sha256WithRSAEncryption
        Issuer: CN = CARoot
        Validity
            Not Before: Apr 23 17:08:51 2021 GMT
            Not After : Apr 21 17:08:51 2031 GMT
        Subject: C = US, ST = CA, O = Apache Pulsar, OU = Broker, CN = Broker
        Subject Public Key Info:
            Public Key Algorithm: rsaEncryption
                RSA Public-Key: (2048 bit)
                Modulus:
                    00:ca:77:dc:2a:13:25:24:cb:29:62:06:12:5f:a8:
                    92:c9:53:d6:3f:07:ca:aa:0a:5f:72:92:cd:b7:ea:
                    45:47:71:f0:63:4f:58:1a:3d:fa:ce:a6:73:90:c0:
                    a9:f7:25:f0:76:75:ed:b2:03:17:be:d8:8a:56:f3:
                    4f:6a:4c:7e:03:65:95:e5:45:eb:8d:47:e8:60:5e:
                    9e:38:74:50:54:65:a0:ec:d8:5c:65:60:34:1b:96:
                    83:7d:71:d4:5d:7f:e3:62:59:67:e8:f0:d6:24:7d:
                    c0:6e:37:03:54:4c:3d:0c:33:39:9b:33:e1:52:44:
                    c5:43:da:ea:ee:2c:f3:1c:16:2e:46:4c:7c:9f:5d:
                    4d:6e:fe:8c:23:9e:f7:7e:9f:39:c1:71:06:52:f4:
                    26:9a:22:d4:cf:c5:25:39:a9:d2:e4:24:c6:d8:4a:
                    48:a2:ee:76:25:cb:3c:f0:bf:cd:10:77:ff:81:11:
                    43:21:cc:3b:cc:10:7a:07:84:fc:cc:02:a2:45:de:
                    91:2d:6b:d1:ed:17:1a:d0:46:f4:ae:7d:b3:89:f8:
                    31:77:95:e5:46:b1:a9:31:d6:d8:e3:47:00:b2:81:
                    81:db:8a:1c:d9:f1:cd:e3:4d:35:f6:38:91:0d:ea:
                    07:f0:b0:06:4f:2c:4c:75:c2:37:ff:35:0d:b1:42:
                    06:0b
                Exponent: 65537 (0x10001)
    Signature Algorithm: sha256WithRSAEncryption
         46:84:81:7e:4a:91:2a:c0:d7:0c:5a:a2:fb:6e:a2:e1:66:15:
         b9:b3:50:1c:93:8c:68:ba:90:42:07:2c:d1:d9:22:53:c4:e7:
         74:a9:ac:0c:25:cb:ae:c9:a1:c9:35:49:5d:10:c6:ee:08:2a:
         23:f3:a4:87:24:92:c4:4e:35:b8:23:8e:be:ad:8c:5b:25:df:
         25:d4:49:8c:d6:11:bf:79:43:a2:88:7f:70:87:8c:fb:51:9a:
         4c:73:8d:10:e7:5b:fa:fb:76:f9:88:7a:6a:d0:bf:0f:65:1e:
         26:22:87:57:31:9a:c9:4c:62:cf:ef:00:2b:4e:2f:ee:d4:d8:
         0d:2f:7f:2e:14:21:d5:c3:25:ce:29:a3:f0:ee:c6:3d:d2:dc:
         7b:80:34:57:50:97:e7:79:d9:ca:39:10:73:2d:46:f4:98:de:
         ec:be:98:1a:17:12:c3:9e:1f:0d:25:c8:4e:17:a1:4a:8d:6a:
         21:11:42:56:1a:16:79:12:e2:db:39:e1:5d:c4:2e:03:31:54:
         d9:97:53:21:bc:f0:60:e1:ba:ff:f6:a5:4b:c1:39:4f:e1:87:
         b7:63:9a:63:fa:a2:83:1c:b5:8e:fd:48:be:d5:50:40:0b:69:
         34:81:1e:d1:ca:c5:34:ff:bc:c3:ec:22:a5:3e:ca:31:fe:43:
         39:00:79:72
-----BEGIN CERTIFICATE-----
MIIC7DCCAdQCFAwmFd+PcR1qMdDar2TvgN6smkZ4MA0GCSqGSIb3DQEBCwUAMBEx
DzANBgNVBAMMBkNBUm9vdDAeFw0yMTA0MjMxNzA4NTFaFw0zMTA0MjExNzA4NTFa
MFQxCzAJBgNVBAYTAlVTMQswCQYDVQQIEwJDQTEWMBQGA1UEChMNQXBhY2hlIFB1
bHNhcjEPMA0GA1UECxMGQnJva2VyMQ8wDQYDVQQDEwZCcm9rZXIwggEiMA0GCSqG
SIb3DQEBAQUAA4IBDwAwggEKAoIBAQDKd9wqEyUkyyliBhJfqJLJU9Y/B8qqCl9y
ks236kVHcfBjT1gaPfrOpnOQwKn3JfB2de2yAxe+2IpW809qTH4DZZXlReuNR+hg
Xp44dFBUZaDs2FxlYDQbloN9cdRdf+NiWWfo8NYkfcBuNwNUTD0MMzmbM+FSRMVD
2uruLPMcFi5GTHyfXU1u/owjnvd+nznBcQZS9CaaItTPxSU5qdLkJMbYSkii7nYl
yzzwv80Qd/+BEUMhzDvMEHoHhPzMAqJF3pEta9HtFxrQRvSufbOJ+DF3leVGsakx
1tjjRwCygYHbihzZ8c3jTTX2OJEN6gfwsAZPLEx1wjf/NQ2xQgYLAgMBAAEwDQYJ
KoZIhvcNAQELBQADggEBAEaEgX5KkSrA1wxaovtuouFmFbmzUByTjGi6kEIHLNHZ
IlPE53SprAwly67Jock1SV0Qxu4IKiPzpIckksRONbgjjr6tjFsl3yXUSYzWEb95
Q6KIf3CHjPtRmkxzjRDnW/r7dvmIemrQvw9lHiYih1cxmslMYs/vACtOL+7U2A0v
fy4UIdXDJc4po/Duxj3S3HuANFdQl+d52co5EHMtRvSY3uy+mBoXEsOeHw0lyE4X
oUqNaiERQlYaFnkS4ts54V3ELgMxVNmXUyG88GDhuv/2pUvBOU/hh7djmmP6ooMc
tY79SL7VUEALaTSBHtHKxTT/vMPsIqU+yjH+QzkAeXI=
-----END CERTIFICATE-----
