Certificate:
    Data:
        Version: 3 (0x2)
        Serial Number: 15670345994378439095 (0xd97840a8266469b7)
    Signature Algorithm: sha256WithRSAEncryption
        Issuer: CN=CARoot
        Validity
            Not Before: Feb 22 06:26:33 2023 GMT
            Not After : Feb 19 06:26:33 2033 GMT
        Subject: CN=CARoot
        Subject Public Key Info:
            Public Key Algorithm: rsaEncryption
                Public-Key: (2048 bit)
                Modulus:
                    00:b2:9a:e4:e5:d4:2e:90:21:62:99:07:8a:dd:94:
                    92:6a:f7:e9:b7:b5:b4:85:7e:53:04:ff:fa:72:2c:
                    77:1b:23:08:c8:91:ff:28:54:67:78:12:40:fc:9e:
                    bd:be:56:95:8c:c0:97:9f:54:b8:03:06:f3:83:f5:
                    14:af:f7:63:1f:51:b9:81:94:08:69:f8:73:ac:1a:
                    9a:dc:9b:79:e4:61:36:86:54:5e:b0:4c:5d:6f:6e:
                    0f:06:a3:7c:ab:10:43:01:4d:29:21:62:af:dd:b1:
                    f4:3f:4d:52:39:98:de:09:5b:68:fd:41:2f:00:f2:
                    22:94:69:cf:e2:2a:0b:2a:67:29:31:24:f4:77:36:
                    b9:18:31:97:e6:2a:96:a2:eb:f2:24:c1:fd:89:1a:
                    f7:51:67:3e:cf:cc:6b:9b:93:3f:9a:19:9b:f2:e4:
                    b4:cf:b3:99:47:fb:2f:1f:50:e1:de:90:a5:e4:4c:
                    da:d6:7d:e6:8c:0d:77:84:6c:87:88:99:27:a4:a8:
                    9a:7d:58:ac:78:32:0f:6e:8e:0d:2f:78:0d:51:20:
                    ae:c1:67:2c:f5:25:7a:dd:98:1c:aa:75:3a:f7:87:
                    97:a4:38:b9:96:5c:91:47:30:b0:a7:fd:6e:9e:59:
                    e4:01:5a:e6:e6:b7:f4:01:21:20:2f:9b:54:05:2f:
                    46:45
                Exponent: 65537 (0x10001)
        X509v3 extensions:
            X509v3 Basic Constraints: critical
                CA:TRUE
            X509v3 Subject Key Identifier: 
                03:72:4A:D9:37:06:FB:B5:C2:04:CF:0B:BF:98:07:FA:C7:6A:85:CE
            X509v3 Authority Key Identifier: 
                keyid:03:72:4A:D9:37:06:FB:B5:C2:04:CF:0B:BF:98:07:FA:C7:6A:85:CE
                DirName:/CN=CARoot
                serial:D9:78:40:A8:26:64:69:B7

    Signature Algorithm: sha256WithRSAEncryption
         8f:f3:3c:19:a8:82:c9:44:e0:2f:b2:dd:1c:b5:3c:9d:77:2b:
         05:fc:e3:e1:a4:95:3b:c5:7e:d9:c0:c7:51:c5:70:75:f8:e2:
         49:43:8e:78:74:dd:1d:7e:c1:9a:46:12:bd:25:24:59:e4:cd:
         54:3d:1e:b7:93:4f:dc:9b:3c:10:4b:c6:83:b6:cd:a8:36:20:
         79:7e:b7:8c:76:e0:b0:fe:6e:df:2a:8f:97:f8:36:b2:b7:1f:
         8b:7a:60:58:24:46:fe:ba:d7:f1:5b:69:14:53:09:3c:75:72:
         ed:ae:10:98:a3:89:bf:0d:5d:16:2e:31:27:90:3c:61:ff:90:
         de:cb:68:f9:30:c1:2f:65:a0:93:c3:e2:d0:fc:ca:f2:01:54:
         5c:f8:6e:fc:10:8b:04:c7:0e:4c:81:d7:8e:b0:16:fd:f7:5b:
         4f:fb:12:18:3b:e5:58:61:13:ce:d6:21:33:f7:43:3e:50:26:
         b8:ae:37:18:1f:82:ba:76:14:ee:6b:7b:87:67:95:cc:44:55:
         b2:8b:aa:af:9f:b5:78:d0:7f:de:f3:7c:91:27:88:95:b5:a6:
         10:05:40:82:57:a7:0e:f4:99:70:c2:e7:af:ea:f2:47:52:84:
         01:78:c0:56:f7:e2:bf:f9:49:b8:1c:ba:4d:e1:2d:f4:28:71:
         78:ae:ac:89
-----BEGIN CERTIFICATE-----
MIIDGjCCAgKgAwIBAgIJANl4QKgmZGm3MA0GCSqGSIb3DQEBCwUAMBExDzANBgNV
BAMMBkNBUm9vdDAeFw0yMzAyMjIwNjI2MzNaFw0zMzAyMTkwNjI2MzNaMBExDzAN
BgNVBAMMBkNBUm9vdDCCASIwDQYJKoZIhvcNAQEBBQADggEPADCCAQoCggEBALKa
5OXULpAhYpkHit2Ukmr36be1tIV+UwT/+nIsdxsjCMiR/yhUZ3gSQPyevb5WlYzA
l59UuAMG84P1FK/3Yx9RuYGUCGn4c6wamtybeeRhNoZUXrBMXW9uDwajfKsQQwFN
KSFir92x9D9NUjmY3glbaP1BLwDyIpRpz+IqCypnKTEk9Hc2uRgxl+YqlqLr8iTB
/Yka91FnPs/Ma5uTP5oZm/LktM+zmUf7Lx9Q4d6QpeRM2tZ95owNd4Rsh4iZJ6So
mn1YrHgyD26ODS94DVEgrsFnLPUlet2YHKp1OveHl6Q4uZZckUcwsKf9bp5Z5AFa
5ua39AEhIC+bVAUvRkUCAwEAAaN1MHMwDwYDVR0TAQH/BAUwAwEB/zAdBgNVHQ4E
FgQUA3JK2TcG+7XCBM8Lv5gH+sdqhc4wQQYDVR0jBDowOIAUA3JK2TcG+7XCBM8L
v5gH+sdqhc6hFaQTMBExDzANBgNVBAMMBkNBUm9vdIIJANl4QKgmZGm3MA0GCSqG
SIb3DQEBCwUAA4IBAQCP8zwZqILJROAvst0ctTyddysF/OPhpJU7xX7ZwMdRxXB1
+OJJQ454dN0dfsGaRhK9JSRZ5M1UPR63k0/cmzwQS8aDts2oNiB5freMduCw/m7f
Ko+X+Daytx+LemBYJEb+utfxW2kUUwk8dXLtrhCYo4m/DV0WLjEnkDxh/5Dey2j5
MMEvZaCTw+LQ/MryAVRc+G78EIsExw5MgdeOsBb991tP+xIYO+VYYRPO1iEz90M+
UCa4rjcYH4K6dhTua3uHZ5XMRFWyi6qvn7V40H/e83yRJ4iVtaYQBUCCV6cO9Jlw
wuev6vJHUoQBeMBW9+K/+Um4HLpN4S30KHF4rqyJ
-----END CERTIFICATE-----
