Certificate:
    Data:
        Version: 3 (0x2)
        Serial Number:
            c1:32:3f:61:ff:0d:77:64
        Signature Algorithm: sha1WithRSAEncryption
        Issuer: C=US, ST=CA, O=Apache Pulsar, OU=Broker, CN=Broker
        Validity
            Not Before: Feb 18 03:51:25 2018 GMT
            Not After : Feb 17 03:51:25 2021 GMT
        Subject: C=US, ST=CA, O=Apache Pulsar, OU=Broker, CN=Broker
        Subject Public Key Info:
            Public Key Algorithm: rsaEncryption
            RSA Public Key: (1024 bit)
                Modulus (1024 bit):
                    00:ba:01:81:08:33:0c:38:03:e1:3b:7d:9e:0c:c5:
                    9f:1e:c6:18:31:21:2d:67:1a:69:52:e0:76:52:c8:
                    7b:c3:83:83:31:e1:5b:3f:4f:ad:7c:75:59:a1:39:
                    df:a3:7b:a2:e6:e7:10:02:8f:2f:ad:13:9c:8a:f6:
                    13:b1:43:6e:54:cd:a5:fe:35:57:ef:e1:a8:f3:48:
                    09:ad:a7:1b:6d:ae:db:73:52:1c:0b:95:eb:da:e2:
                    fa:4e:4b:d8:78:77:a1:61:8d:a3:e0:f9:9a:49:87:
                    42:45:71:2e:a8:7a:d1:1e:c3:1d:ea:40:3f:3a:7c:
                    a6:e3:34:ec:db:53:e7:d3:a9
                Exponent: 65537 (0x10001)
        X509v3 extensions:
            X509v3 Subject Key Identifier: 
                54:D1:B0:95:A0:92:D5:5A:C0:35:8F:6C:EE:D5:6C:4E:90:48:2E:10
            X509v3 Authority Key Identifier: 
                keyid:54:D1:B0:95:A0:92:D5:5A:C0:35:8F:6C:EE:D5:6C:4E:90:48:2E:10
                DirName:/C=US/ST=CA/O=Apache Pulsar/OU=Broker/CN=Broker
                serial:C1:32:3F:61:FF:0D:77:64

            X509v3 Basic Constraints: 
                CA:TRUE
    Signature Algorithm: sha1WithRSAEncryption
        81:81:2e:55:77:02:81:a6:dc:31:ce:ee:50:1e:c4:79:6f:14:
        b0:5e:b3:85:99:0e:29:ba:ab:5e:b5:0b:f7:aa:71:bb:20:ae:
        7a:08:1e:f3:5a:7a:a1:7d:b9:a6:89:9e:89:d4:a3:c5:68:22:
        04:99:99:b0:e7:a8:c1:ac:17:76:1e:3d:e9:07:62:99:da:38:
        ec:0e:7c:d8:3e:bc:0c:cb:71:31:9f:d1:6a:5c:d3:b1:1b:82:
        11:8e:69:b7:f9:1c:a7:19:b8:6d:a4:2d:6a:85:8f:5f:f5:e3:
        32:47:8b:85:47:ba:ef:66:c1:ad:f7:1f:b6:f2:9b:9a:65:3f:
        2f:42
-----BEGIN CERTIFICATE-----
MIIC3jCCAkegAwIBAgIJAMEyP2H/DXdkMA0GCSqGSIb3DQEBBQUAMFQxCzAJBgNV
BAYTAlVTMQswCQYDVQQIEwJDQTEWMBQGA1UEChMNQXBhY2hlIFB1bHNhcjEPMA0G
A1UECxMGQnJva2VyMQ8wDQYDVQQDEwZCcm9rZXIwHhcNMTgwMjE4MDM1MTI1WhcN
MjEwMjE3MDM1MTI1WjBUMQswCQYDVQQGEwJVUzELMAkGA1UECBMCQ0ExFjAUBgNV
BAoTDUFwYWNoZSBQdWxzYXIxDzANBgNVBAsTBkJyb2tlcjEPMA0GA1UEAxMGQnJv
a2VyMIGfMA0GCSqGSIb3DQEBAQUAA4GNADCBiQKBgQC6AYEIMww4A+E7fZ4MxZ8e
xhgxIS1nGmlS4HZSyHvDg4Mx4Vs/T618dVmhOd+je6Lm5xACjy+tE5yK9hOxQ25U
zaX+NVfv4ajzSAmtpxttrttzUhwLleva4vpOS9h4d6FhjaPg+ZpJh0JFcS6oetEe
wx3qQD86fKbjNOzbU+fTqQIDAQABo4G3MIG0MB0GA1UdDgQWBBRU0bCVoJLVWsA1
j2zu1WxOkEguEDCBhAYDVR0jBH0we4AUVNGwlaCS1VrANY9s7tVsTpBILhChWKRW
MFQxCzAJBgNVBAYTAlVTMQswCQYDVQQIEwJDQTEWMBQGA1UEChMNQXBhY2hlIFB1
bHNhcjEPMA0GA1UECxMGQnJva2VyMQ8wDQYDVQQDEwZCcm9rZXKCCQDBMj9h/w13
ZDAMBgNVHRMEBTADAQH/MA0GCSqGSIb3DQEBBQUAA4GBAIGBLlV3AoGm3DHO7lAe
xHlvFLBes4WZDim6q161C/eqcbsgrnoIHvNaeqF9uaaJnonUo8VoIgSZmbDnqMGs
F3YePekHYpnaOOwOfNg+vAzLcTGf0Wpc07EbghGOabf5HKcZuG2kLWqFj1/14zJH
i4VHuu9mwa33H7bym5plPy9C
-----END CERTIFICATE-----
