Certificate:
    Data:
        Version: 3 (0x2)
        Serial Number:
            61:e6:1b:07:90:6a:4f:f7:cd:46:b9:59:1d:3e:1c:39:0d:f2:5e:07
        Signature Algorithm: sha256WithRSAEncryption
        Issuer: CN = CARoot
        Validity
            Not Before: May 30 13:38:24 2022 GMT
            Not After : May 27 13:38:24 2032 GMT
        Subject: C = US, ST = CA, O = Apache Pulsar, OU = Broker, CN = Broker
        Subject Public Key Info:
            Public Key Algorithm: rsaEncryption
                RSA Public-Key: (2048 bit)
                Modulus:
                    00:ca:77:dc:2a:13:25:24:cb:29:62:06:12:5f:a8:
                    92:c9:53:d6:3f:07:ca:aa:0a:5f:72:92:cd:b7:ea:
                    45:47:71:f0:63:4f:58:1a:3d:fa:ce:a6:73:90:c0:
                    a9:f7:25:f0:76:75:ed:b2:03:17:be:d8:8a:56:f3:
                    4f:6a:4c:7e:03:65:95:e5:45:eb:8d:47:e8:60:5e:
                    9e:38:74:50:54:65:a0:ec:d8:5c:65:60:34:1b:96:
                    83:7d:71:d4:5d:7f:e3:62:59:67:e8:f0:d6:24:7d:
                    c0:6e:37:03:54:4c:3d:0c:33:39:9b:33:e1:52:44:
                    c5:43:da:ea:ee:2c:f3:1c:16:2e:46:4c:7c:9f:5d:
                    4d:6e:fe:8c:23:9e:f7:7e:9f:39:c1:71:06:52:f4:
                    26:9a:22:d4:cf:c5:25:39:a9:d2:e4:24:c6:d8:4a:
                    48:a2:ee:76:25:cb:3c:f0:bf:cd:10:77:ff:81:11:
                    43:21:cc:3b:cc:10:7a:07:84:fc:cc:02:a2:45:de:
                    91:2d:6b:d1:ed:17:1a:d0:46:f4:ae:7d:b3:89:f8:
                    31:77:95:e5:46:b1:a9:31:d6:d8:e3:47:00:b2:81:
                    81:db:8a:1c:d9:f1:cd:e3:4d:35:f6:38:91:0d:ea:
                    07:f0:b0:06:4f:2c:4c:75:c2:37:ff:35:0d:b1:42:
                    06:0b
                Exponent: 65537 (0x10001)
        X509v3 extensions:
            X509v3 Subject Alternative Name: 
                DNS:localhost, IP Address:127.0.0.1
    Signature Algorithm: sha256WithRSAEncryption
         8d:1d:69:d2:44:1f:af:68:30:80:c1:91:b2:2f:9a:7e:ca:ff:
         38:46:8e:28:59:02:2d:e7:74:c4:3c:b3:ac:b3:22:53:e9:54:
         3a:e2:4d:4d:65:63:47:dd:38:86:ec:d1:7d:4f:fe:5d:c6:c8:
         c8:10:b8:33:5a:4d:9e:83:e3:92:97:c5:f1:d8:e3:97:6d:01:
         50:03:de:25:d8:e4:de:62:70:b8:c4:55:5b:9f:8c:61:b8:d7:
         f0:8f:6c:2d:80:cc:b8:7b:8b:b4:54:9a:d6:e1:f9:7f:52:99:
         7b:ef:23:88:61:e5:7c:85:5c:57:98:cc:a6:98:4b:71:84:5c:
         ab:5e:82:48:5a:da:5f:d6:84:b5:52:43:df:3c:0f:95:06:29:
         00:94:f8:98:94:6d:1c:c8:76:21:7a:2f:61:34:ab:bd:27:59:
         d1:41:99:91:69:68:f7:b6:65:21:e8:9a:b1:9b:ac:72:12:17:
         54:0b:56:08:bd:9d:6b:0e:35:4a:f8:97:b6:83:00:55:96:0c:
         66:13:06:c9:27:5f:cc:d0:81:4b:3e:6e:d2:85:cd:79:7a:8c:
         a0:1e:d8:9b:e4:da:e9:ba:51:f1:29:0f:69:00:df:24:a0:55:
         5e:cd:d0:84:c9:4a:a8:b4:12:33:29:6f:8a:8c:d7:a1:b4:8b:
         4a:7d:a2:30
-----BEGIN CERTIFICATE-----
MIIDETCCAfmgAwIBAgIUYeYbB5BqT/fNRrlZHT4cOQ3yXgcwDQYJKoZIhvcNAQEL
BQAwETEPMA0GA1UEAwwGQ0FSb290MB4XDTIyMDUzMDEzMzgyNFoXDTMyMDUyNzEz
MzgyNFowVDELMAkGA1UEBhMCVVMxCzAJBgNVBAgTAkNBMRYwFAYDVQQKEw1BcGFj
aGUgUHVsc2FyMQ8wDQYDVQQLEwZCcm9rZXIxDzANBgNVBAMTBkJyb2tlcjCCASIw
DQYJKoZIhvcNAQEBBQADggEPADCCAQoCggEBAMp33CoTJSTLKWIGEl+okslT1j8H
yqoKX3KSzbfqRUdx8GNPWBo9+s6mc5DAqfcl8HZ17bIDF77YilbzT2pMfgNlleVF
641H6GBenjh0UFRloOzYXGVgNBuWg31x1F1/42JZZ+jw1iR9wG43A1RMPQwzOZsz
4VJExUPa6u4s8xwWLkZMfJ9dTW7+jCOe936fOcFxBlL0Jpoi1M/FJTmp0uQkxthK
SKLudiXLPPC/zRB3/4ERQyHMO8wQegeE/MwCokXekS1r0e0XGtBG9K59s4n4MXeV
5UaxqTHW2ONHALKBgduKHNnxzeNNNfY4kQ3qB/CwBk8sTHXCN/81DbFCBgsCAwEA
AaMeMBwwGgYDVR0RBBMwEYIJbG9jYWxob3N0hwR/AAABMA0GCSqGSIb3DQEBCwUA
A4IBAQCNHWnSRB+vaDCAwZGyL5p+yv84Ro4oWQIt53TEPLOssyJT6VQ64k1NZWNH
3TiG7NF9T/5dxsjIELgzWk2eg+OSl8Xx2OOXbQFQA94l2OTeYnC4xFVbn4xhuNfw
j2wtgMy4e4u0VJrW4fl/Upl77yOIYeV8hVxXmMymmEtxhFyrXoJIWtpf1oS1UkPf
PA+VBikAlPiYlG0cyHYhei9hNKu9J1nRQZmRaWj3tmUh6Jqxm6xyEhdUC1YIvZ1r
DjVK+Je2gwBVlgxmEwbJJ1/M0IFLPm7Shc15eoygHtib5NrpulHxKQ9pAN8koFVe
zdCEyUqotBIzKW+KjNehtItKfaIw
-----END CERTIFICATE-----
