Certificate:
    Data:
        Version: 3 (0x2)
        Serial Number:
            37:55:7a:ae:71:6b:5f:f0:0d:f7:11:df:b5:f9:ce:e1:65:a4:0c:a4
        Signature Algorithm: sha256WithRSAEncryption
        Issuer: CN = CARoot
        Validity
            Not Before: Apr 23 17:08:51 2021 GMT
            Not After : Apr 21 17:08:51 2031 GMT
        Subject: CN = CARoot
        Subject Public Key Info:
            Public Key Algorithm: rsaEncryption
                RSA Public-Key: (2048 bit)
                Modulus:
                    00:ce:29:c8:45:af:07:8e:79:1e:55:66:7b:93:af:
                    09:2c:72:fd:d5:33:38:30:a9:b5:50:92:90:33:b0:
                    55:b0:c4:6b:37:4a:ba:5b:76:4d:52:0b:9f:58:b2:
                    c5:95:8c:47:6d:2b:07:0a:f5:74:43:ec:7d:36:bf:
                    3e:8c:d6:13:31:ce:fc:d1:77:b0:ac:3c:ae:69:4b:
                    bd:5d:93:bd:84:57:51:a7:ef:03:2e:ae:3e:93:73:
                    8b:1e:39:90:8b:32:e2:0a:dd:b8:20:83:98:76:91:
                    75:d6:d5:db:43:7b:f4:c9:4e:23:52:e3:11:55:05:
                    48:b8:82:47:ea:32:0b:56:1b:07:11:f3:06:c7:4a:
                    d5:6b:87:c2:2e:e2:9a:8c:9d:54:ca:5e:96:08:02:
                    5d:17:42:4d:73:86:08:ab:6e:2e:f3:a8:c3:a3:c1:
                    bd:88:63:5e:69:7e:fa:af:31:8d:3a:49:ed:e8:cf:
                    80:15:ca:d4:2b:fe:84:3d:aa:27:7e:98:36:48:4f:
                    3b:27:90:1d:c1:fe:4e:13:b0:5e:a5:32:6e:16:38:
                    2e:b7:d1:f3:6b:18:a5:3e:b6:d7:07:42:21:c7:d9:
                    8e:d6:8c:a5:bf:25:9e:5c:fc:c7:12:18:59:23:b9:
                    3d:39:45:3d:1c:81:e2:f2:29:91:05:20:46:b2:52:
                    06:51
                Exponent: 65537 (0x10001)
        X509v3 extensions:
            X509v3 Subject Key Identifier: 
                EF:DA:58:74:AA:21:F9:9E:19:7E:44:2B:84:32:93:F4:0F:79:18:3B
            X509v3 Authority Key Identifier: 
                keyid:EF:DA:58:74:AA:21:F9:9E:19:7E:44:2B:84:32:93:F4:0F:79:18:3B

            X509v3 Basic Constraints: critical
                CA:TRUE
    Signature Algorithm: sha256WithRSAEncryption
         2e:f5:b6:f7:fc:50:89:16:1e:ea:8c:ec:57:54:f6:ca:d3:19:
         65:fe:da:c5:73:53:f6:d0:1e:26:96:f2:d3:03:55:8d:6e:c4:
         cd:8c:2d:7a:ea:fa:38:6c:ed:fa:d5:23:b8:52:c1:e3:52:04:
         3d:46:8c:2d:b6:b2:47:68:41:92:f6:47:24:50:78:47:5e:2a:
         9b:df:85:a8:92:0d:49:17:eb:51:e8:b2:69:3c:4a:f3:9f:5f:
         ea:fd:b2:08:3c:30:1a:93:be:d3:c3:b3:c7:60:7c:ea:f4:15:
         43:bd:3f:b1:d0:69:3c:84:5b:05:01:55:d7:d5:87:fb:58:53:
         03:d8:91:5f:e8:e0:37:88:82:ea:dc:1c:2d:a0:8d:82:68:65:
         6e:ea:0d:2a:e1:aa:cc:b3:d1:ce:a8:2b:2d:ed:e4:ba:0f:7f:
         51:48:d2:4b:2f:7c:eb:02:01:4f:2c:b6:06:c1:9a:97:2c:b7:
         6c:b7:06:86:d1:8b:cc:d6:d4:c3:ff:b5:65:c5:92:eb:9c:68:
         6d:99:d8:4a:6d:7a:ac:fe:dc:f3:12:f8:bb:2b:0a:b9:d8:1e:
         87:b6:e9:8b:51:32:f3:7b:0b:1a:29:57:4c:7d:5a:b6:9c:83:
         23:e5:35:2b:98:83:aa:7c:ef:24:3a:74:a8:86:22:32:06:fb:
         03:b7:01:9d
-----BEGIN CERTIFICATE-----
MIIDAzCCAeugAwIBAgIUN1V6rnFrX/AN9xHftfnO4WWkDKQwDQYJKoZIhvcNAQEL
BQAwETEPMA0GA1UEAwwGQ0FSb290MB4XDTIxMDQyMzE3MDg1MVoXDTMxMDQyMTE3
MDg1MVowETEPMA0GA1UEAwwGQ0FSb290MIIBIjANBgkqhkiG9w0BAQEFAAOCAQ8A
MIIBCgKCAQEAzinIRa8HjnkeVWZ7k68JLHL91TM4MKm1UJKQM7BVsMRrN0q6W3ZN
UgufWLLFlYxHbSsHCvV0Q+x9Nr8+jNYTMc780XewrDyuaUu9XZO9hFdRp+8DLq4+
k3OLHjmQizLiCt24IIOYdpF11tXbQ3v0yU4jUuMRVQVIuIJH6jILVhsHEfMGx0rV
a4fCLuKajJ1Uyl6WCAJdF0JNc4YIq24u86jDo8G9iGNeaX76rzGNOknt6M+AFcrU
K/6EPaonfpg2SE87J5Adwf5OE7BepTJuFjgut9HzaxilPrbXB0Ihx9mO1oylvyWe
XPzHEhhZI7k9OUU9HIHi8imRBSBGslIGUQIDAQABo1MwUTAdBgNVHQ4EFgQU79pY
dKoh+Z4ZfkQrhDKT9A95GDswHwYDVR0jBBgwFoAU79pYdKoh+Z4ZfkQrhDKT9A95
GDswDwYDVR0TAQH/BAUwAwEB/zANBgkqhkiG9w0BAQsFAAOCAQEALvW29/xQiRYe
6ozsV1T2ytMZZf7axXNT9tAeJpby0wNVjW7EzYwteur6OGzt+tUjuFLB41IEPUaM
LbayR2hBkvZHJFB4R14qm9+FqJINSRfrUeiyaTxK859f6v2yCDwwGpO+08Ozx2B8
6vQVQ70/sdBpPIRbBQFV19WH+1hTA9iRX+jgN4iC6twcLaCNgmhlbuoNKuGqzLPR
zqgrLe3kug9/UUjSSy986wIBTyy2BsGalyy3bLcGhtGLzNbUw/+1ZcWS65xobZnY
Sm16rP7c8xL4uysKudgeh7bpi1Ey83sLGilXTH1atpyDI+U1K5iDqnzvJDp0qIYi
Mgb7A7cBnQ==
-----END CERTIFICATE-----
