Certificate:
    Data:
        Version: 3 (0x2)
        Serial Number: 15537474201172114495 (0xd7a0327703a8fc3f)
    Signature Algorithm: sha256WithRSAEncryption
        Issuer: CN=CARoot
        Validity
            Not Before: Feb 22 06:26:33 2023 GMT
            Not After : Feb 19 06:26:33 2033 GMT
        Subject: C=US, ST=CA, O=Apache Pulsar, OU=Broker, CN=Broker
        Subject Public Key Info:
            Public Key Algorithm: rsaEncryption
                Public-Key: (2048 bit)
                Modulus:
                    00:ca:77:dc:2a:13:25:24:cb:29:62:06:12:5f:a8:
                    92:c9:53:d6:3f:07:ca:aa:0a:5f:72:92:cd:b7:ea:
                    45:47:71:f0:63:4f:58:1a:3d:fa:ce:a6:73:90:c0:
                    a9:f7:25:f0:76:75:ed:b2:03:17:be:d8:8a:56:f3:
                    4f:6a:4c:7e:03:65:95:e5:45:eb:8d:47:e8:60:5e:
                    9e:38:74:50:54:65:a0:ec:d8:5c:65:60:34:1b:96:
                    83:7d:71:d4:5d:7f:e3:62:59:67:e8:f0:d6:24:7d:
                    c0:6e:37:03:54:4c:3d:0c:33:39:9b:33:e1:52:44:
                    c5:43:da:ea:ee:2c:f3:1c:16:2e:46:4c:7c:9f:5d:
                    4d:6e:fe:8c:23:9e:f7:7e:9f:39:c1:71:06:52:f4:
                    26:9a:22:d4:cf:c5:25:39:a9:d2:e4:24:c6:d8:4a:
                    48:a2:ee:76:25:cb:3c:f0:bf:cd:10:77:ff:81:11:
                    43:21:cc:3b:cc:10:7a:07:84:fc:cc:02:a2:45:de:
                    91:2d:6b:d1:ed:17:1a:d0:46:f4:ae:7d:b3:89:f8:
                    31:77:95:e5:46:b1:a9:31:d6:d8:e3:47:00:b2:81:
                    81:db:8a:1c:d9:f1:cd:e3:4d:35:f6:38:91:0d:ea:
                    07:f0:b0:06:4f:2c:4c:75:c2:37:ff:35:0d:b1:42:
                    06:0b
                Exponent: 65537 (0x10001)
        X509v3 extensions:
            X509v3 Subject Alternative Name: 
                DNS:localhost, IP Address:127.0.0.1
    Signature Algorithm: sha256WithRSAEncryption
         0a:35:f9:91:0b:0a:47:88:0e:86:b4:c7:b4:86:9c:b5:6a:e5:
         68:dc:38:f3:5d:f9:ae:15:1c:d9:7a:6a:09:e4:03:f4:d8:71:
         62:1d:c7:e7:ba:0e:d1:00:1a:66:8b:9d:97:6e:b3:c3:99:74:
         ad:bf:a9:ab:99:a5:2d:76:d0:87:c5:f5:6e:cd:c3:ef:73:7e:
         23:13:2c:bf:b3:f4:31:93:c2:e9:25:8b:20:de:a7:9b:8a:48:
         32:5f:80:f5:e1:01:4f:14:99:f4:7e:55:62:f9:78:15:18:fa:
         76:a5:0c:88:e5:3d:8a:bf:0f:65:2a:5f:13:5b:c6:03:24:2e:
         f6:be:1b:6b:53:f9:93:c2:eb:b6:ee:9d:85:a5:4a:5d:cc:79:
         43:57:9c:47:2b:fc:67:38:de:1d:d5:a3:6a:40:61:df:7e:49:
         a8:e0:be:f8:62:dc:b2:86:1f:23:e9:2d:db:0d:8b:4f:e5:05:
         6d:64:6f:11:43:7d:39:e6:68:8f:ee:0a:96:e4:d1:c3:6b:c0:
         55:d7:eb:dc:1c:66:fa:28:d5:1f:92:4d:bb:1c:43:f9:b2:f8:
         4c:36:16:44:58:27:83:32:94:9f:64:d6:bd:f8:d3:fe:c9:e7:
         9d:7b:93:f4:b3:16:61:ad:ff:c3:f3:5d:d3:7b:dc:40:ea:a9:
         d1:3d:a7:f5
-----BEGIN CERTIFICATE-----
MIIDBjCCAe6gAwIBAgIJANegMncDqPw/MA0GCSqGSIb3DQEBCwUAMBExDzANBgNV
BAMMBkNBUm9vdDAeFw0yMzAyMjIwNjI2MzNaFw0zMzAyMTkwNjI2MzNaMFQxCzAJ
BgNVBAYTAlVTMQswCQYDVQQIEwJDQTEWMBQGA1UEChMNQXBhY2hlIFB1bHNhcjEP
MA0GA1UECxMGQnJva2VyMQ8wDQYDVQQDEwZCcm9rZXIwggEiMA0GCSqGSIb3DQEB
AQUAA4IBDwAwggEKAoIBAQDKd9wqEyUkyyliBhJfqJLJU9Y/B8qqCl9yks236kVH
cfBjT1gaPfrOpnOQwKn3JfB2de2yAxe+2IpW809qTH4DZZXlReuNR+hgXp44dFBU
ZaDs2FxlYDQbloN9cdRdf+NiWWfo8NYkfcBuNwNUTD0MMzmbM+FSRMVD2uruLPMc
Fi5GTHyfXU1u/owjnvd+nznBcQZS9CaaItTPxSU5qdLkJMbYSkii7nYlyzzwv80Q
d/+BEUMhzDvMEHoHhPzMAqJF3pEta9HtFxrQRvSufbOJ+DF3leVGsakx1tjjRwCy
gYHbihzZ8c3jTTX2OJEN6gfwsAZPLEx1wjf/NQ2xQgYLAgMBAAGjHjAcMBoGA1Ud
EQQTMBGCCWxvY2FsaG9zdIcEfwAAATANBgkqhkiG9w0BAQsFAAOCAQEACjX5kQsK
R4gOhrTHtIactWrlaNw48135rhUc2XpqCeQD9NhxYh3H57oO0QAaZoudl26zw5l0
rb+pq5mlLXbQh8X1bs3D73N+IxMsv7P0MZPC6SWLIN6nm4pIMl+A9eEBTxSZ9H5V
Yvl4FRj6dqUMiOU9ir8PZSpfE1vGAyQu9r4ba1P5k8Lrtu6dhaVKXcx5Q1ecRyv8
ZzjeHdWjakBh335JqOC++GLcsoYfI+kt2w2LT+UFbWRvEUN9OeZoj+4KluTRw2vA
Vdfr3Bxm+ijVH5JNuxxD+bL4TDYWRFgngzKUn2TWvfjT/snnnXuT9LMWYa3/w/Nd
03vcQOqp0T2n9Q==
-----END CERTIFICATE-----
