Certificate:
    Data:
        Version: 3 (0x2)
        Serial Number:
            40:cd:a5:a5:35:76:ee:02:57:8b:30:8f:2a:12:34:03:45:c5:96:8c
        Signature Algorithm: sha256WithRSAEncryption
        Issuer: CN = CARoot
        Validity
            Not Before: May 30 13:38:24 2022 GMT
            Not After : May 27 13:38:24 2032 GMT
        Subject: CN = CARoot
        Subject Public Key Info:
            Public Key Algorithm: rsaEncryption
                RSA Public-Key: (2048 bit)
                Modulus:
                    00:d8:d5:00:e0:6b:4f:4e:8a:67:08:e9:e3:3f:23:
                    ef:15:1d:82:10:85:f3:3b:77:9c:96:c1:aa:eb:90:
                    41:0b:5b:ae:77:d9:a3:f1:cf:2a:32:40:78:33:6a:
                    81:b9:c2:cd:91:36:98:df:41:84:c0:62:8a:a1:03:
                    89:8d:2b:b8:91:49:a9:e8:a2:90:ad:b9:cd:23:84:
                    bc:60:1f:6f:b5:81:9f:9c:cf:d5:26:a8:a5:b6:4d:
                    59:5f:5c:7f:da:e8:1d:3d:04:f3:b8:ef:f8:d5:73:
                    c6:fd:6a:b1:91:ae:16:b7:45:21:9a:1a:1a:76:74:
                    01:40:ee:fc:3c:67:be:6a:7f:f4:a3:82:37:ee:43:
                    41:f5:67:d5:d5:64:9c:d8:53:75:34:4d:23:80:b5:
                    59:13:c2:27:47:8e:20:32:6f:f6:b3:70:bf:5e:15:
                    08:7e:d1:bf:aa:4d:06:6b:0d:17:21:eb:95:47:52:
                    fa:d7:97:ef:1a:5d:63:26:17:36:01:20:ac:57:50:
                    34:f0:57:49:38:3d:9c:68:6a:87:91:38:b6:76:9d:
                    bc:e9:4e:c2:58:54:8d:8a:32:05:9e:ba:cb:f0:d0:
                    ec:91:67:1d:77:bf:d5:02:77:d4:22:78:94:f4:9a:
                    49:fa:ef:b2:9b:30:1a:8a:f0:a7:9a:2b:e5:e9:c7:
                    36:c5
                Exponent: 65537 (0x10001)
        X509v3 extensions:
            X509v3 Subject Key Identifier: 
                DD:AC:A0:40:6E:E9:2B:49:F2:35:DB:B4:E9:98:AD:58:7B:37:6B:55
            X509v3 Authority Key Identifier: 
                keyid:DD:AC:A0:40:6E:E9:2B:49:F2:35:DB:B4:E9:98:AD:58:7B:37:6B:55

            X509v3 Basic Constraints: critical
                CA:TRUE
    Signature Algorithm: sha256WithRSAEncryption
         07:0c:90:05:fa:2c:c9:4e:05:ec:6b:7d:99:9c:52:2a:20:34:
         46:ac:8d:24:81:f9:a7:f3:1d:03:32:45:82:9a:61:af:1f:63:
         25:6b:97:ca:93:78:e5:d7:87:81:b6:29:22:d4:0d:8d:ed:0e:
         bd:85:80:6c:38:e9:86:3c:bd:ee:ff:26:78:0a:f0:a7:54:0b:
         af:27:9e:8b:83:b7:10:e9:44:0d:4a:7e:a8:e2:aa:1c:06:f8:
         18:f1:c4:c9:e4:bb:17:41:59:94:b4:dc:78:53:fb:1b:43:57:
         82:59:de:6c:03:52:9a:28:cb:e4:9e:ea:c5:00:93:e0:27:b4:
         4b:e6:b3:c5:88:2d:14:33:10:ff:b0:23:4e:5d:ea:17:97:7d:
         f4:e2:c8:fe:c3:4a:77:83:64:ef:c9:b6:3e:77:64:32:07:91:
         bd:e1:58:9a:e1:38:ab:eb:d2:e3:cb:05:7c:c7:f3:2b:47:bf:
         36:64:7e:32:5a:62:44:07:c8:8e:9d:55:1a:99:c4:14:5a:66:
         ed:5f:8b:ab:dd:eb:36:28:cd:77:47:84:00:ae:a7:34:0e:0d:
         77:df:67:72:08:94:75:52:1b:4a:71:4d:31:5d:aa:1b:aa:b6:
         e0:d6:86:52:7c:26:ae:1f:96:ab:06:32:cb:7a:f3:bb:76:3e:
         08:53:9f:64
-----BEGIN CERTIFICATE-----
MIIDAzCCAeugAwIBAgIUQM2lpTV27gJXizCPKhI0A0XFlowwDQYJKoZIhvcNAQEL
BQAwETEPMA0GA1UEAwwGQ0FSb290MB4XDTIyMDUzMDEzMzgyNFoXDTMyMDUyNzEz
MzgyNFowETEPMA0GA1UEAwwGQ0FSb290MIIBIjANBgkqhkiG9w0BAQEFAAOCAQ8A
MIIBCgKCAQEA2NUA4GtPTopnCOnjPyPvFR2CEIXzO3eclsGq65BBC1uud9mj8c8q
MkB4M2qBucLNkTaY30GEwGKKoQOJjSu4kUmp6KKQrbnNI4S8YB9vtYGfnM/VJqil
tk1ZX1x/2ugdPQTzuO/41XPG/Wqxka4Wt0UhmhoadnQBQO78PGe+an/0o4I37kNB
9WfV1WSc2FN1NE0jgLVZE8InR44gMm/2s3C/XhUIftG/qk0Gaw0XIeuVR1L615fv
Gl1jJhc2ASCsV1A08FdJOD2caGqHkTi2dp286U7CWFSNijIFnrrL8NDskWcdd7/V
AnfUIniU9JpJ+u+ymzAaivCnmivl6cc2xQIDAQABo1MwUTAdBgNVHQ4EFgQU3ayg
QG7pK0nyNdu06ZitWHs3a1UwHwYDVR0jBBgwFoAU3aygQG7pK0nyNdu06ZitWHs3
a1UwDwYDVR0TAQH/BAUwAwEB/zANBgkqhkiG9w0BAQsFAAOCAQEABwyQBfosyU4F
7Gt9mZxSKiA0RqyNJIH5p/MdAzJFgpphrx9jJWuXypN45deHgbYpItQNje0OvYWA
bDjphjy97v8meArwp1QLryeei4O3EOlEDUp+qOKqHAb4GPHEyeS7F0FZlLTceFP7
G0NXglnebANSmijL5J7qxQCT4Ce0S+azxYgtFDMQ/7AjTl3qF5d99OLI/sNKd4Nk
78m2PndkMgeRveFYmuE4q+vS48sFfMfzK0e/NmR+MlpiRAfIjp1VGpnEFFpm7V+L
q93rNijNd0eEAK6nNA4Nd99ncgiUdVIbSnFNMV2qG6q24NaGUnwmrh+WqwYyy3rz
u3Y+CFOfZA==
-----END CERTIFICATE-----
