Certificate:
    Data:
        Version: 3 (0x2)
        Serial Number:
            c1:32:3f:61:ff:0d:77:65
        Signature Algorithm: sha1WithRSAEncryption
        Issuer: C=US, ST=CA, O=Apache Pulsar, OU=Broker, CN=Broker
        Validity
            Not Before: Feb 18 03:53:39 2018 GMT
            Not After : Nov 16 00:00:00 2030 GMT
        Subject: C=US, ST=CA, O=Apache Pulsar, OU=Broker, CN=Broker
        Subject Public Key Info:
            Public Key Algorithm: rsaEncryption
            RSA Public Key: (2048 bit)
                Modulus (2048 bit):
                    00:ca:77:dc:2a:13:25:24:cb:29:62:06:12:5f:a8:
                    92:c9:53:d6:3f:07:ca:aa:0a:5f:72:92:cd:b7:ea:
                    45:47:71:f0:63:4f:58:1a:3d:fa:ce:a6:73:90:c0:
                    a9:f7:25:f0:76:75:ed:b2:03:17:be:d8:8a:56:f3:
                    4f:6a:4c:7e:03:65:95:e5:45:eb:8d:47:e8:60:5e:
                    9e:38:74:50:54:65:a0:ec:d8:5c:65:60:34:1b:96:
                    83:7d:71:d4:5d:7f:e3:62:59:67:e8:f0:d6:24:7d:
                    c0:6e:37:03:54:4c:3d:0c:33:39:9b:33:e1:52:44:
                    c5:43:da:ea:ee:2c:f3:1c:16:2e:46:4c:7c:9f:5d:
                    4d:6e:fe:8c:23:9e:f7:7e:9f:39:c1:71:06:52:f4:
                    26:9a:22:d4:cf:c5:25:39:a9:d2:e4:24:c6:d8:4a:
                    48:a2:ee:76:25:cb:3c:f0:bf:cd:10:77:ff:81:11:
                    43:21:cc:3b:cc:10:7a:07:84:fc:cc:02:a2:45:de:
                    91:2d:6b:d1:ed:17:1a:d0:46:f4:ae:7d:b3:89:f8:
                    31:77:95:e5:46:b1:a9:31:d6:d8:e3:47:00:b2:81:
                    81:db:8a:1c:d9:f1:cd:e3:4d:35:f6:38:91:0d:ea:
                    07:f0:b0:06:4f:2c:4c:75:c2:37:ff:35:0d:b1:42:
                    06:0b
                Exponent: 65537 (0x10001)
        X509v3 extensions:
            X509v3 Basic Constraints: 
                CA:FALSE
            Netscape Comment: 
                OpenSSL Generated Certificate
            X509v3 Subject Key Identifier: 
                71:34:A9:AE:A7:29:C0:93:85:07:94:FE:63:AE:61:91:1D:7B:57:7D
            X509v3 Authority Key Identifier: 
                keyid:54:D1:B0:95:A0:92:D5:5A:C0:35:8F:6C:EE:D5:6C:4E:90:48:2E:10

    Signature Algorithm: sha1WithRSAEncryption
        24:ce:79:65:1d:bd:1a:4b:0f:7b:c2:91:e5:0b:43:4b:c7:28:
        c0:b7:77:9b:57:ca:c7:05:37:46:2d:f9:cd:1f:f9:f7:95:44:
        39:e9:69:64:c1:33:6e:0f:dd:56:dc:e7:f4:18:aa:e6:92:8a:
        f1:73:ff:90:72:a1:2c:46:e5:14:9a:d7:25:fe:ac:aa:3c:bc:
        81:50:d0:09:1a:e8:2e:3b:bc:77:ac:e1:f7:ef:eb:7d:76:44:
        5f:29:a9:2f:4a:92:33:2d:60:0f:d5:6d:12:c4:e3:a4:4a:eb:
        95:8c:d8:06:06:59:c1:3e:31:12:de:23:ac:af:75:0e:9c:b0:
        9a:a5
-----BEGIN CERTIFICATE-----
MIIDJTCCAo6gAwIBAgIJAMEyP2H/DXdlMA0GCSqGSIb3DQEBBQUAMFQxCzAJBgNV
BAYTAlVTMQswCQYDVQQIEwJDQTEWMBQGA1UEChMNQXBhY2hlIFB1bHNhcjEPMA0G
A1UECxMGQnJva2VyMQ8wDQYDVQQDEwZCcm9rZXIwHhcNMTgwMjE4MDM1MzM5WhcN
MzAxMTE2MDAwMDAwWjBUMQswCQYDVQQGEwJVUzELMAkGA1UECBMCQ0ExFjAUBgNV
BAoTDUFwYWNoZSBQdWxzYXIxDzANBgNVBAsTBkJyb2tlcjEPMA0GA1UEAxMGQnJv
a2VyMIIBIjANBgkqhkiG9w0BAQEFAAOCAQ8AMIIBCgKCAQEAynfcKhMlJMspYgYS
X6iSyVPWPwfKqgpfcpLNt+pFR3HwY09YGj36zqZzkMCp9yXwdnXtsgMXvtiKVvNP
akx+A2WV5UXrjUfoYF6eOHRQVGWg7NhcZWA0G5aDfXHUXX/jYlln6PDWJH3AbjcD
VEw9DDM5mzPhUkTFQ9rq7izzHBYuRkx8n11Nbv6MI573fp85wXEGUvQmmiLUz8Ul
OanS5CTG2EpIou52Jcs88L/NEHf/gRFDIcw7zBB6B4T8zAKiRd6RLWvR7Rca0Eb0
rn2zifgxd5XlRrGpMdbY40cAsoGB24oc2fHN40019jiRDeoH8LAGTyxMdcI3/zUN
sUIGCwIDAQABo3sweTAJBgNVHRMEAjAAMCwGCWCGSAGG+EIBDQQfFh1PcGVuU1NM
IEdlbmVyYXRlZCBDZXJ0aWZpY2F0ZTAdBgNVHQ4EFgQUcTSprqcpwJOFB5T+Y65h
kR17V30wHwYDVR0jBBgwFoAUVNGwlaCS1VrANY9s7tVsTpBILhAwDQYJKoZIhvcN
AQEFBQADgYEAJM55ZR29GksPe8KR5QtDS8cowLd3m1fKxwU3Ri35zR/595VEOelp
ZMEzbg/dVtzn9Biq5pKK8XP/kHKhLEblFJrXJf6sqjy8gVDQCRroLju8d6zh9+/r
fXZEXympL0qSMy1gD9VtEsTjpErrlYzYBgZZwT4xEt4jrK91DpywmqU=
-----END CERTIFICATE-----
