Certificate:
    Data:
        Version: 3 (0x2)
        Serial Number: 15537474201172114490 (0xd7a0327703a8fc3a)
    Signature Algorithm: sha256WithRSAEncryption
        Issuer: CN=CARoot
        Validity
            Not Before: Feb 22 06:26:32 2023 GMT
            Not After : Feb 19 06:26:32 2033 GMT
        Subject: C=US, ST=CA, O=Apache Pulsar, OU=Client, CN=Client
        Subject Public Key Info:
            Public Key Algorithm: rsaEncryption
                Public-Key: (2048 bit)
                Modulus:
                    00:de:1e:10:bd:64:13:c1:6c:7a:49:86:01:3b:ab:
                    ab:1d:ec:b2:93:41:6c:6c:21:f2:e6:15:1b:51:ce:
                    ad:67:fd:18:3e:7f:7a:64:a2:62:5f:2e:0b:59:b4:
                    ed:d9:17:0e:b7:bc:50:66:41:b7:e3:c4:71:c9:73:
                    73:3d:d8:6d:34:80:f2:e3:b9:98:8f:2b:54:14:95:
                    b3:51:1b:d6:91:85:cd:b7:34:a2:50:b6:f1:86:6e:
                    07:30:fa:ae:55:a0:5d:f9:7c:1c:91:50:62:7d:bb:
                    14:86:92:0a:ac:29:3e:28:1b:99:ca:30:63:dc:a9:
                    5f:05:f8:38:3e:30:10:02:9f:cc:94:d7:47:e0:1a:
                    f4:1c:68:96:3d:12:5e:58:21:41:2c:ec:96:ad:9e:
                    08:56:83:7a:92:5f:4b:e6:bd:01:16:70:28:af:aa:
                    27:1d:c4:fe:b2:09:bf:a5:b4:47:d9:58:4b:fe:41:
                    81:0e:a2:46:57:c1:39:7c:8d:e4:b1:a7:25:e6:b4:
                    dd:f3:9e:24:c9:e7:c0:8c:1a:b4:ab:dd:b9:33:bf:
                    11:cb:be:bb:22:f7:fc:ad:c4:40:41:d7:ef:37:08:
                    1a:95:45:1f:db:14:5f:0b:f8:48:ff:41:24:cb:5c:
                    8e:18:48:4c:5f:19:e9:b0:7b:22:d3:bc:42:32:45:
                    9a:d1
                Exponent: 65537 (0x10001)
        X509v3 extensions:
            X509v3 Subject Alternative Name: 
                DNS:localhost, IP Address:127.0.0.1
    Signature Algorithm: sha256WithRSAEncryption
         a3:0e:ff:87:38:9a:fe:1c:b7:4b:ac:b1:6c:ad:30:90:94:6e:
         75:36:f6:46:7d:9b:69:1b:0d:92:1b:fc:39:7c:7a:24:fc:4d:
         77:05:8e:70:6e:2e:db:3a:5f:5d:70:80:71:f5:00:7f:6e:12:
         7e:78:58:0b:8f:93:56:64:29:6f:bb:7d:93:a1:fa:2a:83:98:
         a3:92:73:df:1d:69:7b:51:00:0f:18:68:a5:75:13:ef:3c:38:
         97:c3:31:84:d6:3c:83:50:77:c3:f6:52:69:5a:9c:35:21:a4:
         c2:9f:01:14:b7:2a:a5:3d:71:b2:a6:08:73:10:8e:91:e3:3c:
         69:f9:74:ab:92:f4:16:5d:79:71:3f:3b:58:51:5b:c7:d9:a3:
         85:39:15:60:6b:f7:85:59:e4:4b:96:df:d9:f2:d4:4d:48:34:
         17:50:66:d6:e3:50:49:0d:e7:d5:d9:e0:81:4e:9b:a6:b5:6b:
         72:f3:df:b4:0b:85:5a:e6:e4:ec:28:3a:06:e0:67:e2:be:c1:
         12:7d:9d:5c:ef:3e:77:29:ee:8f:87:44:c7:79:6f:67:0b:fe:
         cf:38:76:25:24:be:70:41:99:7f:47:6a:1e:ce:15:f5:bc:4a:
         b9:e2:74:15:a2:05:c2:95:02:86:f2:ae:36:a6:88:bc:ad:62:
         3d:07:b8:fd
-----BEGIN CERTIFICATE-----
MIIDBjCCAe6gAwIBAgIJANegMncDqPw6MA0GCSqGSIb3DQEBCwUAMBExDzANBgNV
BAMMBkNBUm9vdDAeFw0yMzAyMjIwNjI2MzJaFw0zMzAyMTkwNjI2MzJaMFQxCzAJ
BgNVBAYTAlVTMQswCQYDVQQIEwJDQTEWMBQGA1UEChMNQXBhY2hlIFB1bHNhcjEP
MA0GA1UECxMGQ2xpZW50MQ8wDQYDVQQDEwZDbGllbnQwggEiMA0GCSqGSIb3DQEB
AQUAA4IBDwAwggEKAoIBAQDeHhC9ZBPBbHpJhgE7q6sd7LKTQWxsIfLmFRtRzq1n
/Rg+f3pkomJfLgtZtO3ZFw63vFBmQbfjxHHJc3M92G00gPLjuZiPK1QUlbNRG9aR
hc23NKJQtvGGbgcw+q5VoF35fByRUGJ9uxSGkgqsKT4oG5nKMGPcqV8F+Dg+MBAC
n8yU10fgGvQcaJY9El5YIUEs7JatnghWg3qSX0vmvQEWcCivqicdxP6yCb+ltEfZ
WEv+QYEOokZXwTl8jeSxpyXmtN3zniTJ58CMGrSr3bkzvxHLvrsi9/ytxEBB1+83
CBqVRR/bFF8L+Ej/QSTLXI4YSExfGemweyLTvEIyRZrRAgMBAAGjHjAcMBoGA1Ud
EQQTMBGCCWxvY2FsaG9zdIcEfwAAATANBgkqhkiG9w0BAQsFAAOCAQEAow7/hzia
/hy3S6yxbK0wkJRudTb2Rn2baRsNkhv8OXx6JPxNdwWOcG4u2zpfXXCAcfUAf24S
fnhYC4+TVmQpb7t9k6H6KoOYo5Jz3x1pe1EADxhopXUT7zw4l8MxhNY8g1B3w/ZS
aVqcNSGkwp8BFLcqpT1xsqYIcxCOkeM8afl0q5L0Fl15cT87WFFbx9mjhTkVYGv3
hVnkS5bf2fLUTUg0F1Bm1uNQSQ3n1dnggU6bprVrcvPftAuFWubk7Cg6BuBn4r7B
En2dXO8+dynuj4dEx3lvZwv+zzh2JSS+cEGZf0dqHs4V9bxKueJ0FaIFwpUChvKu
NqaIvK1iPQe4/Q==
-----END CERTIFICATE-----
