Certificate:
    Data:
        Version: 3 (0x2)
        Serial Number:
            61:e6:1b:07:90:6a:4f:f7:cd:46:b9:59:1d:3e:1c:39:0d:f2:5e:03
        Signature Algorithm: sha256WithRSAEncryption
        Issuer: CN = CARoot
        Validity
            Not Before: May 30 13:38:24 2022 GMT
            Not After : May 27 13:38:24 2032 GMT
        Subject: C = US, ST = CA, O = Apache Pulsar, OU = Client, CN = Client
        Subject Public Key Info:
            Public Key Algorithm: rsaEncryption
                RSA Public-Key: (2048 bit)
                Modulus:
                    00:de:1e:10:bd:64:13:c1:6c:7a:49:86:01:3b:ab:
                    ab:1d:ec:b2:93:41:6c:6c:21:f2:e6:15:1b:51:ce:
                    ad:67:fd:18:3e:7f:7a:64:a2:62:5f:2e:0b:59:b4:
                    ed:d9:17:0e:b7:bc:50:66:41:b7:e3:c4:71:c9:73:
                    73:3d:d8:6d:34:80:f2:e3:b9:98:8f:2b:54:14:95:
                    b3:51:1b:d6:91:85:cd:b7:34:a2:50:b6:f1:86:6e:
                    07:30:fa:ae:55:a0:5d:f9:7c:1c:91:50:62:7d:bb:
                    14:86:92:0a:ac:29:3e:28:1b:99:ca:30:63:dc:a9:
                    5f:05:f8:38:3e:30:10:02:9f:cc:94:d7:47:e0:1a:
                    f4:1c:68:96:3d:12:5e:58:21:41:2c:ec:96:ad:9e:
                    08:56:83:7a:92:5f:4b:e6:bd:01:16:70:28:af:aa:
                    27:1d:c4:fe:b2:09:bf:a5:b4:47:d9:58:4b:fe:41:
                    81:0e:a2:46:57:c1:39:7c:8d:e4:b1:a7:25:e6:b4:
                    dd:f3:9e:24:c9:e7:c0:8c:1a:b4:ab:dd:b9:33:bf:
                    11:cb:be:bb:22:f7:fc:ad:c4:40:41:d7:ef:37:08:
                    1a:95:45:1f:db:14:5f:0b:f8:48:ff:41:24:cb:5c:
                    8e:18:48:4c:5f:19:e9:b0:7b:22:d3:bc:42:32:45:
                    9a:d1
                Exponent: 65537 (0x10001)
        X509v3 extensions:
            X509v3 Subject Alternative Name: 
                DNS:localhost, IP Address:127.0.0.1
    Signature Algorithm: sha256WithRSAEncryption
         8b:88:90:00:1a:15:fa:11:f2:f0:35:6f:0f:f2:76:74:fc:8d:
         bc:03:ee:a5:c5:21:17:c9:01:6b:58:93:fa:3e:7b:e0:0d:6d:
         db:1f:2a:48:fa:15:34:66:b7:cb:be:82:c6:28:91:99:42:5a:
         36:b6:0b:2f:bb:85:14:88:a9:ea:dd:0a:7a:be:c4:e7:b2:2d:
         82:a9:37:bc:d9:5c:aa:03:2e:54:68:b1:b7:e8:d6:45:a5:8f:
         48:45:2c:9c:7a:55:0a:4a:07:1b:30:8a:49:6d:f4:62:b1:9e:
         92:0e:d9:34:44:6c:6d:e7:a3:18:bb:85:58:6d:da:20:83:d5:
         ca:65:63:1e:3b:e6:df:7b:97:40:4f:b1:59:63:a9:b5:80:6f:
         97:51:53:a1:d3:29:1f:1a:26:05:17:59:3e:16:4f:5f:38:36:
         76:30:c6:bf:1e:3e:ed:39:83:91:31:58:01:13:59:5c:c5:e9:
         d6:61:e0:f3:5f:c7:47:8a:5f:af:23:98:89:7b:b4:e6:f6:51:
         98:a0:26:31:c8:67:91:6d:d5:68:75:3d:4d:48:44:5f:3b:9c:
         df:a7:87:a0:11:02:d2:13:5f:c1:4c:3f:3e:09:59:2e:fc:cb:
         c2:c5:f0:f8:91:df:c3:dd:ad:c8:fc:44:23:9b:78:0d:3b:f2:
         82:f6:02:82
-----BEGIN CERTIFICATE-----
MIIDETCCAfmgAwIBAgIUYeYbB5BqT/fNRrlZHT4cOQ3yXgMwDQYJKoZIhvcNAQEL
BQAwETEPMA0GA1UEAwwGQ0FSb290MB4XDTIyMDUzMDEzMzgyNFoXDTMyMDUyNzEz
MzgyNFowVDELMAkGA1UEBhMCVVMxCzAJBgNVBAgTAkNBMRYwFAYDVQQKEw1BcGFj
aGUgUHVsc2FyMQ8wDQYDVQQLEwZDbGllbnQxDzANBgNVBAMTBkNsaWVudDCCASIw
DQYJKoZIhvcNAQEBBQADggEPADCCAQoCggEBAN4eEL1kE8FsekmGATurqx3sspNB
bGwh8uYVG1HOrWf9GD5/emSiYl8uC1m07dkXDre8UGZBt+PEcclzcz3YbTSA8uO5
mI8rVBSVs1Eb1pGFzbc0olC28YZuBzD6rlWgXfl8HJFQYn27FIaSCqwpPigbmcow
Y9ypXwX4OD4wEAKfzJTXR+Aa9Bxolj0SXlghQSzslq2eCFaDepJfS+a9ARZwKK+q
Jx3E/rIJv6W0R9lYS/5BgQ6iRlfBOXyN5LGnJea03fOeJMnnwIwatKvduTO/Ecu+
uyL3/K3EQEHX7zcIGpVFH9sUXwv4SP9BJMtcjhhITF8Z6bB7ItO8QjJFmtECAwEA
AaMeMBwwGgYDVR0RBBMwEYIJbG9jYWxob3N0hwR/AAABMA0GCSqGSIb3DQEBCwUA
A4IBAQCLiJAAGhX6EfLwNW8P8nZ0/I28A+6lxSEXyQFrWJP6PnvgDW3bHypI+hU0
ZrfLvoLGKJGZQlo2tgsvu4UUiKnq3Qp6vsTnsi2CqTe82VyqAy5UaLG36NZFpY9I
RSycelUKSgcbMIpJbfRisZ6SDtk0RGxt56MYu4VYbdogg9XKZWMeO+bfe5dAT7FZ
Y6m1gG+XUVOh0ykfGiYFF1k+Fk9fODZ2MMa/Hj7tOYORMVgBE1lcxenWYeDzX8dH
il+vI5iJe7Tm9lGYoCYxyGeRbdVodT1NSERfO5zfp4egEQLSE1/BTD8+CVku/MvC
xfD4kd/D3a3I/EQjm3gNO/KC9gKC
-----END CERTIFICATE-----
