Certificate:
    Data:
        Version: 3 (0x2)
        Serial Number:
            f8:db:4d:4a:12:e2:bf:0a
        Signature Algorithm: sha1WithRSAEncryption
        Issuer: C=US, ST=CA, O=Apache Pulsar, OU=Client, CN=Client
        Validity
            Not Before: Feb 18 03:56:51 2018 GMT
            Not After : Feb 17 03:56:51 2021 GMT
        Subject: C=US, ST=CA, O=Apache Pulsar, OU=Client, CN=Client
        Subject Public Key Info:
            Public Key Algorithm: rsaEncryption
            RSA Public Key: (1024 bit)
                Modulus (1024 bit):
                    00:c9:b4:bc:fe:63:eb:34:97:fb:c2:bd:84:d4:47:
                    ea:5e:21:3f:ce:7e:0b:38:b9:a7:5c:9b:02:93:34:
                    06:68:1c:2c:7e:5a:d9:a9:c6:db:39:d5:5a:40:52:
                    e8:63:bb:db:76:78:8a:8c:a7:cb:dc:23:9e:b2:56:
                    6a:c9:4f:5e:8d:f0:50:1c:2f:68:ef:0e:03:d7:e9:
                    30:0e:6e:45:eb:a6:39:0d:67:9c:b2:f7:10:e7:a5:
                    a4:f3:4a:6e:0d:d3:86:6f:16:66:15:04:fb:4f:95:
                    f1:bd:c2:36:3c:5d:b3:c3:7b:a9:36:c5:f1:1a:64:
                    c6:b5:f7:ff:c2:be:09:c0:35
                Exponent: 65537 (0x10001)
        X509v3 extensions:
            X509v3 Subject Key Identifier: 
                4F:E4:CE:4A:8E:79:B6:43:C0:A4:9F:8B:78:A9:6F:BD:60:81:46:54
            X509v3 Authority Key Identifier: 
                keyid:4F:E4:CE:4A:8E:79:B6:43:C0:A4:9F:8B:78:A9:6F:BD:60:81:46:54
                DirName:/C=US/ST=CA/O=Apache Pulsar/OU=Client/CN=Client
                serial:F8:DB:4D:4A:12:E2:BF:0A

            X509v3 Basic Constraints: 
                CA:TRUE
    Signature Algorithm: sha1WithRSAEncryption
        85:04:19:99:c8:27:4f:f2:60:71:6b:f4:25:d0:b2:d0:eb:6a:
        d8:1a:1d:5f:c5:a5:c5:af:1b:41:16:30:a2:42:f2:53:85:5e:
        42:03:9d:e8:75:35:14:46:91:18:b3:12:ad:b8:db:7f:12:0f:
        32:8b:02:ff:51:0c:ce:d9:15:01:98:11:81:61:e0:f2:52:d3:
        36:2b:9f:b5:93:67:80:70:57:b8:cb:a3:5d:94:14:93:cd:f7:
        a4:b0:d0:43:a6:f7:5e:c1:bc:b1:95:1e:dc:2d:b4:67:65:24:
        6b:9d:eb:fc:ef:6f:ea:ea:c6:59:4c:fe:05:3f:48:89:47:a1:
        f2:b1
-----BEGIN CERTIFICATE-----
MIIC3jCCAkegAwIBAgIJAPjbTUoS4r8KMA0GCSqGSIb3DQEBBQUAMFQxCzAJBgNV
BAYTAlVTMQswCQYDVQQIEwJDQTEWMBQGA1UEChMNQXBhY2hlIFB1bHNhcjEPMA0G
A1UECxMGQ2xpZW50MQ8wDQYDVQQDEwZDbGllbnQwHhcNMTgwMjE4MDM1NjUxWhcN
MjEwMjE3MDM1NjUxWjBUMQswCQYDVQQGEwJVUzELMAkGA1UECBMCQ0ExFjAUBgNV
BAoTDUFwYWNoZSBQdWxzYXIxDzANBgNVBAsTBkNsaWVudDEPMA0GA1UEAxMGQ2xp
ZW50MIGfMA0GCSqGSIb3DQEBAQUAA4GNADCBiQKBgQDJtLz+Y+s0l/vCvYTUR+pe
IT/Ofgs4uadcmwKTNAZoHCx+Wtmpxts51VpAUuhju9t2eIqMp8vcI56yVmrJT16N
8FAcL2jvDgPX6TAObkXrpjkNZ5yy9xDnpaTzSm4N04ZvFmYVBPtPlfG9wjY8XbPD
e6k2xfEaZMa19//CvgnANQIDAQABo4G3MIG0MB0GA1UdDgQWBBRP5M5Kjnm2Q8Ck
n4t4qW+9YIFGVDCBhAYDVR0jBH0we4AUT+TOSo55tkPApJ+LeKlvvWCBRlShWKRW
MFQxCzAJBgNVBAYTAlVTMQswCQYDVQQIEwJDQTEWMBQGA1UEChMNQXBhY2hlIFB1
bHNhcjEPMA0GA1UECxMGQ2xpZW50MQ8wDQYDVQQDEwZDbGllbnSCCQD4201KEuK/
CjAMBgNVHRMEBTADAQH/MA0GCSqGSIb3DQEBBQUAA4GBAIUEGZnIJ0/yYHFr9CXQ
stDratgaHV/FpcWvG0EWMKJC8lOFXkIDneh1NRRGkRizEq24238SDzKLAv9RDM7Z
FQGYEYFh4PJS0zYrn7WTZ4BwV7jLo12UFJPN96Sw0EOm917BvLGVHtwttGdlJGud
6/zvb+rqxllM/gU/SIlHofKx
-----END CERTIFICATE-----
