Certificate:
    Data:
        Version: 3 (0x2)
        Serial Number: 15559223195710621847 (0xd7ed770f69598897)
    Signature Algorithm: sha256WithRSAEncryption
        Issuer: CN=CARoot
        Validity
            Not Before: Feb 22 06:26:32 2023 GMT
            Not After : Feb 19 06:26:32 2033 GMT
        Subject: CN=CARoot
        Subject Public Key Info:
            Public Key Algorithm: rsaEncryption
                Public-Key: (2048 bit)
                Modulus:
                    00:bf:3e:e6:db:fd:a2:6c:b9:45:29:e8:d3:90:4d:
                    78:29:ef:fc:67:c4:e0:ae:06:fc:f8:2b:cb:3b:4b:
                    89:cf:37:3c:ab:86:94:59:c3:50:54:4b:18:d5:8b:
                    14:f5:cd:36:58:c6:ac:a1:67:f7:04:58:58:2f:e0:
                    89:73:8b:b1:ef:97:a4:16:10:97:e6:6f:2f:18:b9:
                    8c:93:7b:7c:5b:4f:8d:09:49:aa:70:59:e5:3b:fa:
                    c0:b9:4a:ed:14:98:0a:5f:56:b3:49:0a:4d:c0:22:
                    1e:75:3d:ba:f9:19:da:68:80:18:ad:b7:8f:de:fd:
                    1f:60:33:86:74:46:e0:b7:7a:84:5e:b7:af:5b:57:
                    3c:93:ad:37:83:2c:1b:e0:77:a3:84:da:25:1d:16:
                    77:3f:25:b1:90:49:28:a6:c8:cf:bc:e4:b9:27:85:
                    f9:36:4f:47:81:cd:56:26:41:23:10:8f:36:26:ce:
                    78:b9:ab:45:ce:9c:eb:a3:2a:11:93:ae:b7:d4:d7:
                    57:e9:97:71:5b:fa:ca:0e:71:34:43:87:bb:c0:8e:
                    68:f4:4d:c8:64:45:02:5d:81:bd:3b:47:bc:ec:4e:
                    e4:61:e3:c4:16:f0:ef:83:fd:06:5c:05:50:d8:50:
                    41:dc:d6:62:6d:b2:26:7b:d3:6b:f6:da:59:4c:a8:
                    db:b5
                Exponent: 65537 (0x10001)
        X509v3 extensions:
            X509v3 Basic Constraints: critical
                CA:TRUE
            X509v3 Subject Key Identifier: 
                F9:B2:AD:C4:24:62:47:3C:1A:58:AA:66:D0:91:12:F3:20:EE:A9:6C
            X509v3 Authority Key Identifier: 
                keyid:F9:B2:AD:C4:24:62:47:3C:1A:58:AA:66:D0:91:12:F3:20:EE:A9:6C
                DirName:/CN=CARoot
                serial:D7:ED:77:0F:69:59:88:97

    Signature Algorithm: sha256WithRSAEncryption
         bc:24:05:65:56:87:f9:87:f4:1b:5a:a3:a0:01:c6:58:c0:7c:
         ca:c9:ee:1d:0c:d5:6b:47:28:dc:bd:2f:f1:73:03:e1:a5:08:
         05:56:11:29:d5:48:32:23:d3:7d:46:db:20:58:29:78:19:af:
         6a:a2:d1:b6:6e:30:a0:a3:b1:88:c1:b5:1f:f0:0f:63:5e:ab:
         85:5f:09:0a:3c:20:cb:61:3b:91:80:70:4e:1f:c5:37:34:0d:
         1c:9f:b5:de:93:f1:ae:94:ff:7c:76:7d:6a:a7:19:6f:22:34:
         bd:66:07:28:59:f3:60:ef:39:8d:bd:9d:2b:82:08:f0:68:aa:
         d6:e0:68:f1:f1:d2:c6:c6:61:88:0d:41:56:40:72:14:14:78:
         f9:32:45:de:f9:4d:ef:45:32:a0:21:10:5c:76:f5:ee:fd:a9:
         37:34:04:67:94:72:14:54:5f:27:c3:d3:2d:a6:7f:94:4d:a8:
         98:c4:f9:d9:fc:cd:37:92:3c:c8:bb:2d:a1:f6:ea:14:50:08:
         46:38:9a:cd:71:1b:5b:b4:d9:18:88:77:74:dd:ae:df:b1:58:
         52:f2:8b:e7:bb:0b:0c:92:a6:41:d1:b6:17:64:08:09:7f:7d:
         c6:f5:c0:11:a7:29:35:9e:23:9d:e2:08:d5:0e:cb:0c:0c:f2:
         d0:7e:38:67
-----BEGIN CERTIFICATE-----
MIIDGjCCAgKgAwIBAgIJANftdw9pWYiXMA0GCSqGSIb3DQEBCwUAMBExDzANBgNV
BAMMBkNBUm9vdDAeFw0yMzAyMjIwNjI2MzJaFw0zMzAyMTkwNjI2MzJaMBExDzAN
BgNVBAMMBkNBUm9vdDCCASIwDQYJKoZIhvcNAQEBBQADggEPADCCAQoCggEBAL8+
5tv9omy5RSno05BNeCnv/GfE4K4G/PgryztLic83PKuGlFnDUFRLGNWLFPXNNljG
rKFn9wRYWC/giXOLse+XpBYQl+ZvLxi5jJN7fFtPjQlJqnBZ5Tv6wLlK7RSYCl9W
s0kKTcAiHnU9uvkZ2miAGK23j979H2AzhnRG4Ld6hF63r1tXPJOtN4MsG+B3o4Ta
JR0Wdz8lsZBJKKbIz7zkuSeF+TZPR4HNViZBIxCPNibOeLmrRc6c66MqEZOut9TX
V+mXcVv6yg5xNEOHu8COaPRNyGRFAl2BvTtHvOxO5GHjxBbw74P9BlwFUNhQQdzW
Ym2yJnvTa/baWUyo27UCAwEAAaN1MHMwDwYDVR0TAQH/BAUwAwEB/zAdBgNVHQ4E
FgQU+bKtxCRiRzwaWKpm0JES8yDuqWwwQQYDVR0jBDowOIAU+bKtxCRiRzwaWKpm
0JES8yDuqWyhFaQTMBExDzANBgNVBAMMBkNBUm9vdIIJANftdw9pWYiXMA0GCSqG
SIb3DQEBCwUAA4IBAQC8JAVlVof5h/QbWqOgAcZYwHzKye4dDNVrRyjcvS/xcwPh
pQgFVhEp1UgyI9N9RtsgWCl4Ga9qotG2bjCgo7GIwbUf8A9jXquFXwkKPCDLYTuR
gHBOH8U3NA0cn7Xek/GulP98dn1qpxlvIjS9ZgcoWfNg7zmNvZ0rggjwaKrW4Gjx
8dLGxmGIDUFWQHIUFHj5MkXe+U3vRTKgIRBcdvXu/ak3NARnlHIUVF8nw9Mtpn+U
TaiYxPnZ/M03kjzIuy2h9uoUUAhGOJrNcRtbtNkYiHd03a7fsVhS8ovnuwsMkqZB
0bYXZAgJf33G9cARpyk1niOd4gjVDssMDPLQfjhn
-----END CERTIFICATE-----
