Certificate:
    Data:
        Version: 3 (0x2)
        Serial Number:
            f8:db:4d:4a:12:e2:bf:0b
        Signature Algorithm: sha1WithRSAEncryption
        Issuer: C=US, ST=CA, O=Apache Pulsar, OU=Client, CN=Client
        Validity
            Not Before: Feb 18 03:58:13 2018 GMT
            Not After : Nov 16 00:00:00 2030 GMT
        Subject: C=US, ST=CA, O=Apache Pulsar, OU=Client, CN=Client
        Subject Public Key Info:
            Public Key Algorithm: rsaEncryption
            RSA Public Key: (2048 bit)
                Modulus (2048 bit):
                    00:de:1e:10:bd:64:13:c1:6c:7a:49:86:01:3b:ab:
                    ab:1d:ec:b2:93:41:6c:6c:21:f2:e6:15:1b:51:ce:
                    ad:67:fd:18:3e:7f:7a:64:a2:62:5f:2e:0b:59:b4:
                    ed:d9:17:0e:b7:bc:50:66:41:b7:e3:c4:71:c9:73:
                    73:3d:d8:6d:34:80:f2:e3:b9:98:8f:2b:54:14:95:
                    b3:51:1b:d6:91:85:cd:b7:34:a2:50:b6:f1:86:6e:
                    07:30:fa:ae:55:a0:5d:f9:7c:1c:91:50:62:7d:bb:
                    14:86:92:0a:ac:29:3e:28:1b:99:ca:30:63:dc:a9:
                    5f:05:f8:38:3e:30:10:02:9f:cc:94:d7:47:e0:1a:
                    f4:1c:68:96:3d:12:5e:58:21:41:2c:ec:96:ad:9e:
                    08:56:83:7a:92:5f:4b:e6:bd:01:16:70:28:af:aa:
                    27:1d:c4:fe:b2:09:bf:a5:b4:47:d9:58:4b:fe:41:
                    81:0e:a2:46:57:c1:39:7c:8d:e4:b1:a7:25:e6:b4:
                    dd:f3:9e:24:c9:e7:c0:8c:1a:b4:ab:dd:b9:33:bf:
                    11:cb:be:bb:22:f7:fc:ad:c4:40:41:d7:ef:37:08:
                    1a:95:45:1f:db:14:5f:0b:f8:48:ff:41:24:cb:5c:
                    8e:18:48:4c:5f:19:e9:b0:7b:22:d3:bc:42:32:45:
                    9a:d1
                Exponent: 65537 (0x10001)
        X509v3 extensions:
            X509v3 Basic Constraints: 
                CA:FALSE
            Netscape Comment: 
                OpenSSL Generated Certificate
            X509v3 Subject Key Identifier: 
                E1:E9:57:60:A7:47:48:F0:1F:A8:C6:2F:95:BF:3A:42:DB:BC:7A:4D
            X509v3 Authority Key Identifier: 
                keyid:4F:E4:CE:4A:8E:79:B6:43:C0:A4:9F:8B:78:A9:6F:BD:60:81:46:54

    Signature Algorithm: sha1WithRSAEncryption
        a5:eb:02:90:4c:a3:33:e4:6c:c3:47:66:94:d8:3c:05:c0:ac:
        f4:44:56:de:85:a8:41:4a:bb:28:0f:7e:aa:b9:58:40:a4:22:
        b3:a3:46:94:42:0c:f2:93:0e:b5:c1:17:29:58:48:12:4a:3d:
        83:40:e0:6b:07:11:54:ca:7b:58:a8:f3:7a:e4:3d:69:aa:04:
        2e:3a:5e:d8:c1:ac:08:2f:41:17:b4:cb:35:89:00:65:f1:2b:
        07:80:4c:c2:90:49:cd:2d:ca:43:8c:64:c1:eb:8a:b3:88:d1:
        4b:50:95:14:41:4b:b7:76:b2:10:97:52:63:bf:17:c7:36:6f:
        d8:bb
-----BEGIN CERTIFICATE-----
MIIDJTCCAo6gAwIBAgIJAPjbTUoS4r8LMA0GCSqGSIb3DQEBBQUAMFQxCzAJBgNV
BAYTAlVTMQswCQYDVQQIEwJDQTEWMBQGA1UEChMNQXBhY2hlIFB1bHNhcjEPMA0G
A1UECxMGQ2xpZW50MQ8wDQYDVQQDEwZDbGllbnQwHhcNMTgwMjE4MDM1ODEzWhcN
MzAxMTE2MDAwMDAwWjBUMQswCQYDVQQGEwJVUzELMAkGA1UECBMCQ0ExFjAUBgNV
BAoTDUFwYWNoZSBQdWxzYXIxDzANBgNVBAsTBkNsaWVudDEPMA0GA1UEAxMGQ2xp
ZW50MIIBIjANBgkqhkiG9w0BAQEFAAOCAQ8AMIIBCgKCAQEA3h4QvWQTwWx6SYYB
O6urHeyyk0FsbCHy5hUbUc6tZ/0YPn96ZKJiXy4LWbTt2RcOt7xQZkG348RxyXNz
PdhtNIDy47mYjytUFJWzURvWkYXNtzSiULbxhm4HMPquVaBd+XwckVBifbsUhpIK
rCk+KBuZyjBj3KlfBfg4PjAQAp/MlNdH4Br0HGiWPRJeWCFBLOyWrZ4IVoN6kl9L
5r0BFnAor6onHcT+sgm/pbRH2VhL/kGBDqJGV8E5fI3ksacl5rTd854kyefAjBq0
q925M78Ry767Ivf8rcRAQdfvNwgalUUf2xRfC/hI/0Eky1yOGEhMXxnpsHsi07xC
MkWa0QIDAQABo3sweTAJBgNVHRMEAjAAMCwGCWCGSAGG+EIBDQQfFh1PcGVuU1NM
IEdlbmVyYXRlZCBDZXJ0aWZpY2F0ZTAdBgNVHQ4EFgQU4elXYKdHSPAfqMYvlb86
Qtu8ek0wHwYDVR0jBBgwFoAUT+TOSo55tkPApJ+LeKlvvWCBRlQwDQYJKoZIhvcN
AQEFBQADgYEApesCkEyjM+Rsw0dmlNg8BcCs9ERW3oWoQUq7KA9+qrlYQKQis6NG
lEIM8pMOtcEXKVhIEko9g0DgawcRVMp7WKjzeuQ9aaoELjpe2MGsCC9BF7TLNYkA
ZfErB4BMwpBJzS3KQ4xkweuKs4jRS1CVFEFLt3ayEJdSY78XxzZv2Ls=
-----END CERTIFICATE-----
