Certificate:
    Data:
        Version: 3 (0x2)
        Serial Number:
            33:a3:2e:28:58:0b:7a:7b:3c:71:4e:51:1d:1d:16:f5:72:3d:99:01
        Signature Algorithm: sha256WithRSAEncryption
        Issuer: CN = CARoot
        Validity
            Not Before: Apr 23 17:08:51 2021 GMT
            Not After : Apr 21 17:08:51 2031 GMT
        Subject: CN = CARoot
        Subject Public Key Info:
            Public Key Algorithm: rsaEncryption
                RSA Public-Key: (2048 bit)
                Modulus:
                    00:d9:06:95:38:4a:ed:0d:ef:57:12:26:5e:2f:ea:
                    3c:05:78:1e:36:90:6c:d6:8d:dc:18:e7:e0:24:d7:
                    72:ae:d3:af:6a:ff:32:1f:ee:d8:93:9e:f4:53:88:
                    0f:5d:d6:56:41:03:b9:1e:d7:d4:0d:d5:ae:27:20:
                    d8:8f:e3:7d:65:79:d3:00:c9:cc:f4:ef:f5:c9:f6:
                    83:a4:45:b4:6d:11:ac:fc:55:f2:94:6b:75:74:d9:
                    f7:23:b2:5a:ba:a3:21:b4:6e:5a:2d:fc:84:32:ef:
                    78:f5:d7:22:7c:e8:a8:15:aa:1d:9f:53:63:fd:77:
                    f4:d7:20:cc:21:34:1c:7a:22:a9:6a:de:90:06:ae:
                    10:ff:96:21:61:9e:6d:21:f5:66:37:ef:a0:5a:a8:
                    51:5f:22:24:9f:a9:a9:b3:21:10:f4:7a:d9:ee:c3:
                    20:73:c3:48:0a:c7:98:7c:5f:04:7a:e1:eb:8c:d6:
                    f0:18:d7:e9:0c:11:cd:a1:81:f4:d4:67:c0:72:0f:
                    e3:90:86:92:97:bd:bc:44:df:b1:b3:6d:85:4f:6b:
                    fa:bf:9e:6a:1d:9c:77:23:3b:6f:89:38:fb:45:ff:
                    f5:76:b3:19:f7:7c:59:2b:07:ff:6a:4a:f5:93:4a:
                    62:ef:18:3b:ea:54:8f:2d:c2:34:c8:a3:6f:ee:f8:
                    f2:a3
                Exponent: 65537 (0x10001)
        X509v3 extensions:
            X509v3 Subject Key Identifier: 
                86:1F:20:03:1D:EA:65:52:AA:D7:38:B7:A7:B1:DC:0A:02:F9:F2:02
            X509v3 Authority Key Identifier: 
                keyid:86:1F:20:03:1D:EA:65:52:AA:D7:38:B7:A7:B1:DC:0A:02:F9:F2:02

            X509v3 Basic Constraints: critical
                CA:TRUE
    Signature Algorithm: sha256WithRSAEncryption
         c3:8a:4d:5b:3a:01:28:08:cc:cd:8b:cc:37:0d:0b:0c:45:dd:
         c0:44:ee:36:9c:1d:7d:1f:b9:5a:a7:fd:9a:19:34:0f:8c:09:
         9d:24:f1:7b:a2:22:ef:7f:f3:4f:31:e2:b8:a5:f2:ec:d5:32:
         02:f3:10:c4:82:c4:a0:33:b0:50:53:b7:2e:3d:78:30:8e:b3:
         c1:f8:51:4d:30:5b:40:65:6f:ad:b8:99:be:d8:cc:3b:43:00:
         2b:16:5c:9c:bd:83:24:a0:48:0d:cd:2e:29:74:a8:e6:bc:df:
         f0:7c:2c:1f:03:72:f4:47:4d:88:e6:8f:53:77:25:23:57:0a:
         84:fb:38:e7:b0:84:57:2b:4d:5a:f0:94:34:8a:48:ca:dc:f7:
         08:b5:d5:1e:64:b4:03:c9:f3:3d:dd:f5:27:ac:f8:2b:d5:80:
         ab:b5:b1:37:8e:ae:2f:03:c2:19:4d:37:d6:e2:76:24:a2:98:
         ed:c8:c5:d0:65:29:4d:ce:0a:bf:d0:a3:3f:f6:03:47:fa:75:
         8c:06:22:fe:8a:13:9a:9c:17:f5:35:71:7d:66:b9:cd:ca:ac:
         1e:c3:09:c6:76:b0:6c:2b:45:fd:5b:a9:02:7b:e8:fa:65:32:
         e3:8e:7d:25:6e:06:db:bc:fd:5b:ad:78:d3:e0:09:df:3d:9c:
         3b:56:c5:69
-----BEGIN CERTIFICATE-----
MIIDAzCCAeugAwIBAgIUM6MuKFgLens8cU5RHR0W9XI9mQEwDQYJKoZIhvcNAQEL
BQAwETEPMA0GA1UEAwwGQ0FSb290MB4XDTIxMDQyMzE3MDg1MVoXDTMxMDQyMTE3
MDg1MVowETEPMA0GA1UEAwwGQ0FSb290MIIBIjANBgkqhkiG9w0BAQEFAAOCAQ8A
MIIBCgKCAQEA2QaVOErtDe9XEiZeL+o8BXgeNpBs1o3cGOfgJNdyrtOvav8yH+7Y
k570U4gPXdZWQQO5HtfUDdWuJyDYj+N9ZXnTAMnM9O/1yfaDpEW0bRGs/FXylGt1
dNn3I7JauqMhtG5aLfyEMu949dcifOioFaodn1Nj/Xf01yDMITQceiKpat6QBq4Q
/5YhYZ5tIfVmN++gWqhRXyIkn6mpsyEQ9HrZ7sMgc8NICseYfF8EeuHrjNbwGNfp
DBHNoYH01GfAcg/jkIaSl728RN+xs22FT2v6v55qHZx3IztviTj7Rf/1drMZ93xZ
Kwf/akr1k0pi7xg76lSPLcI0yKNv7vjyowIDAQABo1MwUTAdBgNVHQ4EFgQUhh8g
Ax3qZVKq1zi3p7HcCgL58gIwHwYDVR0jBBgwFoAUhh8gAx3qZVKq1zi3p7HcCgL5
8gIwDwYDVR0TAQH/BAUwAwEB/zANBgkqhkiG9w0BAQsFAAOCAQEAw4pNWzoBKAjM
zYvMNw0LDEXdwETuNpwdfR+5Wqf9mhk0D4wJnSTxe6Ii73/zTzHiuKXy7NUyAvMQ
xILEoDOwUFO3Lj14MI6zwfhRTTBbQGVvrbiZvtjMO0MAKxZcnL2DJKBIDc0uKXSo
5rzf8HwsHwNy9EdNiOaPU3clI1cKhPs457CEVytNWvCUNIpIytz3CLXVHmS0A8nz
Pd31J6z4K9WAq7WxN46uLwPCGU031uJ2JKKY7cjF0GUpTc4Kv9CjP/YDR/p1jAYi
/ooTmpwX9TVxfWa5zcqsHsMJxnawbCtF/VupAnvo+mUy4459JW4G27z9W6140+AJ
3z2cO1bFaQ==
-----END CERTIFICATE-----
