Certificate:
    Data:
        Version: 1 (0x0)
        Serial Number:
            0c:26:15:df:8f:71:1d:6a:31:d0:da:af:64:ef:80:de:ac:9a:46:79
        Signature Algorithm: sha256WithRSAEncryption
        Issuer: CN = CARoot
        Validity
            Not Before: Apr 23 17:08:51 2021 GMT
            Not After : Apr 21 17:08:51 2031 GMT
        Subject: C = US, ST = CA, O = Apache Pulsar, OU = Client, CN = Client
        Subject Public Key Info:
            Public Key Algorithm: rsaEncryption
                RSA Public-Key: (2048 bit)
                Modulus:
                    00:de:1e:10:bd:64:13:c1:6c:7a:49:86:01:3b:ab:
                    ab:1d:ec:b2:93:41:6c:6c:21:f2:e6:15:1b:51:ce:
                    ad:67:fd:18:3e:7f:7a:64:a2:62:5f:2e:0b:59:b4:
                    ed:d9:17:0e:b7:bc:50:66:41:b7:e3:c4:71:c9:73:
                    73:3d:d8:6d:34:80:f2:e3:b9:98:8f:2b:54:14:95:
                    b3:51:1b:d6:91:85:cd:b7:34:a2:50:b6:f1:86:6e:
                    07:30:fa:ae:55:a0:5d:f9:7c:1c:91:50:62:7d:bb:
                    14:86:92:0a:ac:29:3e:28:1b:99:ca:30:63:dc:a9:
                    5f:05:f8:38:3e:30:10:02:9f:cc:94:d7:47:e0:1a:
                    f4:1c:68:96:3d:12:5e:58:21:41:2c:ec:96:ad:9e:
                    08:56:83:7a:92:5f:4b:e6:bd:01:16:70:28:af:aa:
                    27:1d:c4:fe:b2:09:bf:a5:b4:47:d9:58:4b:fe:41:
                    81:0e:a2:46:57:c1:39:7c:8d:e4:b1:a7:25:e6:b4:
                    dd:f3:9e:24:c9:e7:c0:8c:1a:b4:ab:dd:b9:33:bf:
                    11:cb:be:bb:22:f7:fc:ad:c4:40:41:d7:ef:37:08:
                    1a:95:45:1f:db:14:5f:0b:f8:48:ff:41:24:cb:5c:
                    8e:18:48:4c:5f:19:e9:b0:7b:22:d3:bc:42:32:45:
                    9a:d1
                Exponent: 65537 (0x10001)
    Signature Algorithm: sha256WithRSAEncryption
         a4:bb:d2:e4:ba:17:1f:07:13:26:ac:e1:71:df:1e:d4:d7:a7:
         31:dd:df:ce:e6:bb:11:fb:cf:a5:66:d2:fb:0e:26:90:fd:94:
         0d:d2:d6:91:f3:65:75:ae:16:b6:92:2e:0a:41:b5:fc:ba:33:
         57:85:92:e8:a3:30:97:d9:26:dc:e0:37:da:c5:bd:5f:e9:dd:
         db:81:cb:38:96:99:6e:d2:a5:6d:92:a8:6d:be:03:6f:a9:48:
         4a:a1:4b:91:f9:c3:11:85:79:1e:4e:77:98:ff:43:dd:e0:f9:
         8e:95:fe:f3:e2:eb:48:72:cf:04:fe:3d:78:b3:a8:ee:56:c8:
         12:c8:0a:3d:70:f4:86:42:d2:b9:54:4d:07:8c:45:ad:af:b9:
         43:c8:f9:ee:fc:5d:96:a2:b6:d5:d9:48:57:4e:b5:7d:c7:8c:
         35:21:99:13:9a:60:42:1f:39:4a:3a:1b:3b:e5:ab:1d:91:59:
         8a:e1:82:9e:70:79:f9:9a:6e:bb:a9:99:30:4d:93:c8:bf:95:
         91:a1:03:a3:ac:d8:cd:80:db:89:82:a7:e6:74:8d:53:b3:a6:
         7a:b9:ca:93:14:a2:01:08:bd:9f:4e:2d:0d:50:b3:aa:e8:a6:
         a8:43:b5:d6:a4:1c:2f:62:7a:1f:1b:92:6b:2d:fa:12:c3:1a:
         ed:8b:11:fe
-----BEGIN CERTIFICATE-----
MIIC7DCCAdQCFAwmFd+PcR1qMdDar2TvgN6smkZ5MA0GCSqGSIb3DQEBCwUAMBEx
DzANBgNVBAMMBkNBUm9vdDAeFw0yMTA0MjMxNzA4NTFaFw0zMTA0MjExNzA4NTFa
MFQxCzAJBgNVBAYTAlVTMQswCQYDVQQIEwJDQTEWMBQGA1UEChMNQXBhY2hlIFB1
bHNhcjEPMA0GA1UECxMGQ2xpZW50MQ8wDQYDVQQDEwZDbGllbnQwggEiMA0GCSqG
SIb3DQEBAQUAA4IBDwAwggEKAoIBAQDeHhC9ZBPBbHpJhgE7q6sd7LKTQWxsIfLm
FRtRzq1n/Rg+f3pkomJfLgtZtO3ZFw63vFBmQbfjxHHJc3M92G00gPLjuZiPK1QU
lbNRG9aRhc23NKJQtvGGbgcw+q5VoF35fByRUGJ9uxSGkgqsKT4oG5nKMGPcqV8F
+Dg+MBACn8yU10fgGvQcaJY9El5YIUEs7JatnghWg3qSX0vmvQEWcCivqicdxP6y
Cb+ltEfZWEv+QYEOokZXwTl8jeSxpyXmtN3zniTJ58CMGrSr3bkzvxHLvrsi9/yt
xEBB1+83CBqVRR/bFF8L+Ej/QSTLXI4YSExfGemweyLTvEIyRZrRAgMBAAEwDQYJ
KoZIhvcNAQELBQADggEBAKS70uS6Fx8HEyas4XHfHtTXpzHd387muxH7z6Vm0vsO
JpD9lA3S1pHzZXWuFraSLgpBtfy6M1eFkuijMJfZJtzgN9rFvV/p3duByziWmW7S
pW2SqG2+A2+pSEqhS5H5wxGFeR5Od5j/Q93g+Y6V/vPi60hyzwT+PXizqO5WyBLI
Cj1w9IZC0rlUTQeMRa2vuUPI+e78XZaittXZSFdOtX3HjDUhmROaYEIfOUo6Gzvl
qx2RWYrhgp5wefmabrupmTBNk8i/lZGhA6Os2M2A24mCp+Z0jVOzpnq5ypMUogEI
vZ9OLQ1Qs6ropqhDtdakHC9ieh8bkmst+hLDGu2LEf4=
-----END CERTIFICATE-----
