Certificate:
    Data:
        Version: 1 (0x0)
        Serial Number: 15537474201172114492 (0xd7a0327703a8fc3c)
    Signature Algorithm: sha256WithRSAEncryption
        Issuer: CN=CARoot
        Validity
            Not Before: Feb 22 06:26:32 2023 GMT
            Not After : Feb 19 06:26:32 2033 GMT
        Subject: C=US, ST=CA, O=Apache Pulsar, OU=Broker, CN=Broker
        Subject Public Key Info:
            Public Key Algorithm: rsaEncryption
                Public-Key: (2048 bit)
                Modulus:
                    00:ca:77:dc:2a:13:25:24:cb:29:62:06:12:5f:a8:
                    92:c9:53:d6:3f:07:ca:aa:0a:5f:72:92:cd:b7:ea:
                    45:47:71:f0:63:4f:58:1a:3d:fa:ce:a6:73:90:c0:
                    a9:f7:25:f0:76:75:ed:b2:03:17:be:d8:8a:56:f3:
                    4f:6a:4c:7e:03:65:95:e5:45:eb:8d:47:e8:60:5e:
                    9e:38:74:50:54:65:a0:ec:d8:5c:65:60:34:1b:96:
                    83:7d:71:d4:5d:7f:e3:62:59:67:e8:f0:d6:24:7d:
                    c0:6e:37:03:54:4c:3d:0c:33:39:9b:33:e1:52:44:
                    c5:43:da:ea:ee:2c:f3:1c:16:2e:46:4c:7c:9f:5d:
                    4d:6e:fe:8c:23:9e:f7:7e:9f:39:c1:71:06:52:f4:
                    26:9a:22:d4:cf:c5:25:39:a9:d2:e4:24:c6:d8:4a:
                    48:a2:ee:76:25:cb:3c:f0:bf:cd:10:77:ff:81:11:
                    43:21:cc:3b:cc:10:7a:07:84:fc:cc:02:a2:45:de:
                    91:2d:6b:d1:ed:17:1a:d0:46:f4:ae:7d:b3:89:f8:
                    31:77:95:e5:46:b1:a9:31:d6:d8:e3:47:00:b2:81:
                    81:db:8a:1c:d9:f1:cd:e3:4d:35:f6:38:91:0d:ea:
                    07:f0:b0:06:4f:2c:4c:75:c2:37:ff:35:0d:b1:42:
                    06:0b
                Exponent: 65537 (0x10001)
    Signature Algorithm: sha256WithRSAEncryption
         67:a9:c5:b1:e0:12:19:67:f7:27:db:87:90:15:29:99:fc:ea:
         62:b3:73:c3:6f:78:fe:50:17:14:8a:61:35:e3:28:ab:3e:c3:
         85:24:ff:70:81:04:0d:b7:7a:eb:e9:dc:06:97:b4:0f:2c:97:
         6d:81:f7:da:dc:f9:ff:91:94:69:5c:15:29:3a:25:87:ff:ef:
         98:6d:5a:36:19:2d:10:cf:d8:3a:d4:45:30:75:5c:52:58:ef:
         e6:6c:27:a0:17:a1:a6:76:05:f4:f3:cb:89:89:61:32:c5:bf:
         f0:f3:1c:85:90:78:88:c4:37:63:5c:e6:39:43:c0:b0:51:9d:
         cc:51:9f:32:b3:78:47:3e:5e:da:58:12:72:df:ba:11:17:a5:
         40:b8:ef:9e:e1:40:49:38:51:7e:76:1e:6c:7f:d3:70:02:de:
         af:bb:a6:e0:53:d8:1d:2e:e5:b6:98:6c:27:92:cf:86:3d:0f:
         01:13:95:5d:40:35:47:dc:1b:4c:e9:52:5e:34:98:13:35:35:
         5b:c4:df:fd:61:99:d4:7f:f4:04:fb:26:97:d7:25:8e:fc:1a:
         13:88:37:53:b2:91:3d:0f:0d:9c:31:8a:d0:76:31:dd:50:85:
         43:8a:9b:46:20:a8:3f:f7:9c:30:bb:39:cc:02:ef:7e:22:32:
         8a:df:7d:93
-----BEGIN CERTIFICATE-----
MIIC4TCCAckCCQDXoDJ3A6j8PDANBgkqhkiG9w0BAQsFADARMQ8wDQYDVQQDDAZD
QVJvb3QwHhcNMjMwMjIyMDYyNjMyWhcNMzMwMjE5MDYyNjMyWjBUMQswCQYDVQQG
EwJVUzELMAkGA1UECBMCQ0ExFjAUBgNVBAoTDUFwYWNoZSBQdWxzYXIxDzANBgNV
BAsTBkJyb2tlcjEPMA0GA1UEAxMGQnJva2VyMIIBIjANBgkqhkiG9w0BAQEFAAOC
AQ8AMIIBCgKCAQEAynfcKhMlJMspYgYSX6iSyVPWPwfKqgpfcpLNt+pFR3HwY09Y
Gj36zqZzkMCp9yXwdnXtsgMXvtiKVvNPakx+A2WV5UXrjUfoYF6eOHRQVGWg7Nhc
ZWA0G5aDfXHUXX/jYlln6PDWJH3AbjcDVEw9DDM5mzPhUkTFQ9rq7izzHBYuRkx8
n11Nbv6MI573fp85wXEGUvQmmiLUz8UlOanS5CTG2EpIou52Jcs88L/NEHf/gRFD
Icw7zBB6B4T8zAKiRd6RLWvR7Rca0Eb0rn2zifgxd5XlRrGpMdbY40cAsoGB24oc
2fHN40019jiRDeoH8LAGTyxMdcI3/zUNsUIGCwIDAQABMA0GCSqGSIb3DQEBCwUA
A4IBAQBnqcWx4BIZZ/cn24eQFSmZ/Opis3PDb3j+UBcUimE14yirPsOFJP9wgQQN
t3rr6dwGl7QPLJdtgffa3Pn/kZRpXBUpOiWH/++YbVo2GS0Qz9g61EUwdVxSWO/m
bCegF6GmdgX088uJiWEyxb/w8xyFkHiIxDdjXOY5Q8CwUZ3MUZ8ys3hHPl7aWBJy
37oRF6VAuO+e4UBJOFF+dh5sf9NwAt6vu6bgU9gdLuW2mGwnks+GPQ8BE5VdQDVH
3BtM6VJeNJgTNTVbxN/9YZnUf/QE+yaX1yWO/BoTiDdTspE9Dw2cMYrQdjHdUIVD
iptGIKg/95wwuznMAu9+IjKK332T
-----END CERTIFICATE-----
