Certificate:
    Data:
        Version: 3 (0x2)
        Serial Number:
            77:4f:f6:cf:99:ca:77:e8:a7:6e:1e:fd:e2:cf:ac:a9:da:68:d2:42
        Signature Algorithm: sha256WithRSAEncryption
        Issuer: CN = CARoot
        Validity
            Not Before: May 30 13:38:24 2022 GMT
            Not After : May 27 13:38:24 2032 GMT
        Subject: CN = CARoot
        Subject Public Key Info:
            Public Key Algorithm: rsaEncryption
                RSA Public-Key: (2048 bit)
                Modulus:
                    00:b8:5e:c2:60:ed:c4:ee:3c:5b:ab:fc:64:52:f3:
                    30:41:fc:10:5a:ac:a6:9b:0a:93:d0:d0:c9:bf:96:
                    14:a7:cf:5c:3e:23:91:7e:54:ec:fe:2d:9f:c9:34:
                    d1:4e:95:2f:85:9c:cc:be:90:a3:a4:cb:4d:a4:72:
                    d2:84:e0:c7:42:c4:bf:70:b6:fa:d2:45:8b:83:66:
                    1e:a4:e9:0e:06:a3:46:ea:a7:18:cd:33:b9:f1:ff:
                    76:91:72:8f:cd:f9:93:43:c3:6e:17:1f:2d:86:df:
                    b6:fb:2d:d6:be:2d:98:ad:de:00:c7:de:f9:68:b5:
                    40:40:56:49:ae:23:e5:a1:3b:5f:15:5a:44:50:da:
                    fb:02:d3:42:c6:87:0d:c0:8d:3a:e6:e2:aa:73:31:
                    ab:79:58:51:cd:03:80:f3:12:ce:2f:35:04:8b:39:
                    5f:b0:cc:b8:41:99:47:c1:17:96:8b:c2:44:84:b5:
                    21:8a:15:52:fe:1a:5a:f9:88:cc:11:17:ee:48:dd:
                    ba:bf:ed:67:6e:27:35:42:cf:07:5e:b1:8b:81:55:
                    92:01:8e:61:fd:8e:82:74:b1:70:7a:3d:52:1f:16:
                    78:12:bb:b5:09:62:ce:6d:18:4a:e9:f5:27:19:bc:
                    93:4e:ed:dd:53:a8:c1:bb:48:b7:18:20:7b:79:48:
                    48:9d
                Exponent: 65537 (0x10001)
        X509v3 extensions:
            X509v3 Subject Key Identifier: 
                0F:46:61:3E:6F:71:22:E6:1F:32:37:7C:B2:81:A6:CC:DB:9D:F5:7C
            X509v3 Authority Key Identifier: 
                keyid:0F:46:61:3E:6F:71:22:E6:1F:32:37:7C:B2:81:A6:CC:DB:9D:F5:7C

            X509v3 Basic Constraints: critical
                CA:TRUE
    Signature Algorithm: sha256WithRSAEncryption
         91:e8:d8:c4:32:2e:80:5c:d4:cb:24:7a:81:43:a9:c7:95:90:
         1a:2e:7a:d3:0c:5d:b6:21:05:67:4d:98:5a:0d:71:ea:80:01:
         95:42:fe:fa:f1:7c:dc:bd:76:ff:05:26:3b:f0:94:b3:09:2c:
         34:dd:43:56:46:2b:15:35:99:d9:94:54:22:cf:a6:68:b0:d1:
         79:e2:f0:9f:0b:02:7c:cf:1f:bd:d0:f6:49:c6:82:28:a5:c6:
         ae:94:65:cf:fd:ad:a8:6c:c2:17:da:db:f3:be:30:1a:1b:b4:
         2c:fa:08:71:9d:64:09:45:02:92:02:ad:eb:15:47:14:43:5b:
         a8:2d:1a:ec:14:93:dc:ff:bb:51:33:a3:d5:4d:e2:77:ca:e1:
         a5:98:5c:7a:b6:10:19:d3:d7:f5:14:a5:d5:08:f1:97:18:3d:
         5f:a6:4e:a2:4a:0d:4b:d4:bb:56:6b:a8:44:35:62:c5:d8:c6:
         67:11:93:1c:22:64:3e:aa:15:08:dc:87:39:dd:f6:e0:a0:d5:
         00:db:27:79:3d:f4:35:7c:46:a9:fa:0c:fa:fc:74:f5:bf:f4:
         fe:71:40:45:33:22:35:83:f7:1a:96:2a:fc:b2:33:e0:1a:e8:
         24:48:91:5d:90:5c:4c:93:33:4c:40:de:26:bb:24:ac:48:9b:
         ae:fe:19:34
-----BEGIN CERTIFICATE-----
MIIDAzCCAeugAwIBAgIUd0/2z5nKd+inbh794s+sqdpo0kIwDQYJKoZIhvcNAQEL
BQAwETEPMA0GA1UEAwwGQ0FSb290MB4XDTIyMDUzMDEzMzgyNFoXDTMyMDUyNzEz
MzgyNFowETEPMA0GA1UEAwwGQ0FSb290MIIBIjANBgkqhkiG9w0BAQEFAAOCAQ8A
MIIBCgKCAQEAuF7CYO3E7jxbq/xkUvMwQfwQWqymmwqT0NDJv5YUp89cPiORflTs
/i2fyTTRTpUvhZzMvpCjpMtNpHLShODHQsS/cLb60kWLg2YepOkOBqNG6qcYzTO5
8f92kXKPzfmTQ8NuFx8tht+2+y3Wvi2Yrd4Ax975aLVAQFZJriPloTtfFVpEUNr7
AtNCxocNwI065uKqczGreVhRzQOA8xLOLzUEizlfsMy4QZlHwReWi8JEhLUhihVS
/hpa+YjMERfuSN26v+1nbic1Qs8HXrGLgVWSAY5h/Y6CdLFwej1SHxZ4Eru1CWLO
bRhK6fUnGbyTTu3dU6jBu0i3GCB7eUhInQIDAQABo1MwUTAdBgNVHQ4EFgQUD0Zh
Pm9xIuYfMjd8soGmzNud9XwwHwYDVR0jBBgwFoAUD0ZhPm9xIuYfMjd8soGmzNud
9XwwDwYDVR0TAQH/BAUwAwEB/zANBgkqhkiG9w0BAQsFAAOCAQEAkejYxDIugFzU
yyR6gUOpx5WQGi560wxdtiEFZ02YWg1x6oABlUL++vF83L12/wUmO/CUswksNN1D
VkYrFTWZ2ZRUIs+maLDReeLwnwsCfM8fvdD2ScaCKKXGrpRlz/2tqGzCF9rb874w
Ghu0LPoIcZ1kCUUCkgKt6xVHFENbqC0a7BST3P+7UTOj1U3id8rhpZhcerYQGdPX
9RSl1Qjxlxg9X6ZOokoNS9S7VmuoRDVixdjGZxGTHCJkPqoVCNyHOd324KDVANsn
eT30NXxGqfoM+vx09b/0/nFARTMiNYP3GpYq/LIz4BroJEiRXZBcTJMzTEDeJrsk
rEibrv4ZNA==
-----END CERTIFICATE-----
