Certificate:
    Data:
        Version: 3 (0x2)
        Serial Number:
            61:e6:1b:07:90:6a:4f:f7:cd:46:b9:59:1d:3e:1c:39:0d:f2:5e:04
        Signature Algorithm: sha256WithRSAEncryption
        Issuer: CN = CARoot
        Validity
            Not Before: May 30 13:38:24 2022 GMT
            Not After : May 27 13:38:24 2032 GMT
        Subject: C = US, ST = CA, O = Apache Pulsar, OU = Proxy, CN = Proxy
        Subject Public Key Info:
            Public Key Algorithm: rsaEncryption
                RSA Public-Key: (2048 bit)
                Modulus:
                    00:c3:5c:c5:ad:17:dc:f4:d4:c4:ea:1c:60:5a:24:
                    46:13:d9:cf:c0:cd:83:2e:2f:82:70:e5:e0:8d:33:
                    bd:95:b5:cf:c6:f0:54:d5:8d:bd:87:0d:62:6c:1d:
                    3f:52:66:74:ff:06:33:1c:3c:d5:ed:2e:63:d9:96:
                    c6:f1:98:82:c7:94:4a:bc:64:f2:9b:3a:54:ec:81:
                    99:bc:14:82:43:87:0c:6b:da:03:8c:aa:0b:41:d7:
                    fe:27:c4:f9:88:81:34:b1:ff:2a:e0:6d:d0:47:dd:
                    c1:11:a5:54:a9:53:32:cd:8f:f6:75:58:8e:05:e4:
                    d9:b1:ac:69:fe:b6:54:c3:ad:36:04:a2:77:f5:53:
                    b6:74:83:d5:6a:01:e0:96:b5:a2:af:50:8f:b5:d7:
                    9d:a7:c2:bd:f8:31:86:09:5f:7c:0a:b2:db:34:e1:
                    80:25:17:5f:7d:6f:8b:dc:8e:d5:f9:cf:cf:f5:f6:
                    8f:6a:fe:3e:96:00:c9:56:b0:d0:e3:46:de:b9:a6:
                    8a:5e:9b:8e:7f:ea:19:cc:a2:5b:75:22:3c:1d:36:
                    48:e4:f2:1a:01:95:61:c1:f0:7a:27:9d:83:96:74:
                    cc:a9:04:42:08:53:34:98:2e:b7:e3:83:f9:f2:a3:
                    29:e1:23:c4:ed:a0:1c:f6:2a:ed:dc:c0:df:97:a9:
                    f3:8d
                Exponent: 65537 (0x10001)
        X509v3 extensions:
            X509v3 Subject Alternative Name: 
                DNS:localhost, IP Address:127.0.0.1
    Signature Algorithm: sha256WithRSAEncryption
         8d:b6:2c:5f:87:13:06:a8:66:ce:11:2a:2c:20:1e:c7:ee:50:
         75:a7:d1:7c:ad:c6:ec:d1:18:d0:fa:aa:00:fa:08:f9:0f:cc:
         df:59:9a:6b:1c:18:07:15:84:d0:9a:24:8d:dd:46:79:9c:dc:
         9e:3e:97:10:24:b2:9d:d4:f6:c5:79:58:87:7c:a6:af:cf:69:
         23:fb:43:7a:0f:4d:26:e0:e9:66:c5:ad:fa:88:e2:c5:6e:6a:
         ce:70:0c:8f:73:01:d6:fd:a9:1f:31:49:41:17:45:22:cc:a6:
         71:e4:f4:0f:0f:2e:3e:49:0b:5f:04:94:36:49:fa:72:42:c9:
         25:75:84:9a:dc:16:cb:69:44:44:e5:3a:ff:26:f6:44:42:4c:
         6c:e2:56:d6:3e:bc:f2:8b:83:de:e2:91:70:65:b9:d0:dd:a3:
         d1:de:53:27:77:13:2d:86:27:c3:40:2f:c1:a5:50:1c:5a:44:
         51:b4:29:11:c3:30:9d:1a:96:25:7a:d6:05:70:ad:06:0d:f2:
         9b:b1:b6:82:39:06:c7:7c:b2:49:04:19:e4:7e:87:b8:d8:42:
         1d:ab:ed:d0:b0:7f:79:6b:89:75:2f:6a:26:67:3d:33:57:5f:
         5a:49:52:98:3b:2a:e5:43:d7:f9:97:ca:75:cd:6f:e9:e4:66:
         b6:d6:c2:c7
-----BEGIN CERTIFICATE-----
MIIDDzCCAfegAwIBAgIUYeYbB5BqT/fNRrlZHT4cOQ3yXgQwDQYJKoZIhvcNAQEL
BQAwETEPMA0GA1UEAwwGQ0FSb290MB4XDTIyMDUzMDEzMzgyNFoXDTMyMDUyNzEz
MzgyNFowUjELMAkGA1UEBhMCVVMxCzAJBgNVBAgTAkNBMRYwFAYDVQQKEw1BcGFj
aGUgUHVsc2FyMQ4wDAYDVQQLEwVQcm94eTEOMAwGA1UEAxMFUHJveHkwggEiMA0G
CSqGSIb3DQEBAQUAA4IBDwAwggEKAoIBAQDDXMWtF9z01MTqHGBaJEYT2c/AzYMu
L4Jw5eCNM72Vtc/G8FTVjb2HDWJsHT9SZnT/BjMcPNXtLmPZlsbxmILHlEq8ZPKb
OlTsgZm8FIJDhwxr2gOMqgtB1/4nxPmIgTSx/yrgbdBH3cERpVSpUzLNj/Z1WI4F
5NmxrGn+tlTDrTYEonf1U7Z0g9VqAeCWtaKvUI+1152nwr34MYYJX3wKsts04YAl
F199b4vcjtX5z8/19o9q/j6WAMlWsNDjRt65popem45/6hnMolt1IjwdNkjk8hoB
lWHB8HonnYOWdMypBEIIUzSYLrfjg/nyoynhI8TtoBz2Ku3cwN+XqfONAgMBAAGj
HjAcMBoGA1UdEQQTMBGCCWxvY2FsaG9zdIcEfwAAATANBgkqhkiG9w0BAQsFAAOC
AQEAjbYsX4cTBqhmzhEqLCAex+5QdafRfK3G7NEY0PqqAPoI+Q/M31maaxwYBxWE
0Jokjd1GeZzcnj6XECSyndT2xXlYh3ymr89pI/tDeg9NJuDpZsWt+ojixW5qznAM
j3MB1v2pHzFJQRdFIsymceT0Dw8uPkkLXwSUNkn6ckLJJXWEmtwWy2lEROU6/yb2
REJMbOJW1j688ouD3uKRcGW50N2j0d5TJ3cTLYYnw0AvwaVQHFpEUbQpEcMwnRqW
JXrWBXCtBg3ym7G2gjkGx3yySQQZ5H6HuNhCHavt0LB/eWuJdS9qJmc9M1dfWklS
mDsq5UPX+ZfKdc1v6eRmttbCxw==
-----END CERTIFICATE-----
