Certificate:
    Data:
        Version: 3 (0x2)
        Serial Number:
            a5:2d:2e:41:e9:fc:8a:92
        Signature Algorithm: sha1WithRSAEncryption
        Issuer: C=US, ST=CA, O=Apache Pulsar, OU=Proxy, CN=Proxy
        Validity
            Not Before: Feb 18 04:02:27 2018 GMT
            Not After : Nov 16 00:00:00 2030 GMT
        Subject: C=US, ST=CA, O=Apache Pulsar, OU=Proxy, CN=Proxy
        Subject Public Key Info:
            Public Key Algorithm: rsaEncryption
            RSA Public Key: (2048 bit)
                Modulus (2048 bit):
                    00:c3:5c:c5:ad:17:dc:f4:d4:c4:ea:1c:60:5a:24:
                    46:13:d9:cf:c0:cd:83:2e:2f:82:70:e5:e0:8d:33:
                    bd:95:b5:cf:c6:f0:54:d5:8d:bd:87:0d:62:6c:1d:
                    3f:52:66:74:ff:06:33:1c:3c:d5:ed:2e:63:d9:96:
                    c6:f1:98:82:c7:94:4a:bc:64:f2:9b:3a:54:ec:81:
                    99:bc:14:82:43:87:0c:6b:da:03:8c:aa:0b:41:d7:
                    fe:27:c4:f9:88:81:34:b1:ff:2a:e0:6d:d0:47:dd:
                    c1:11:a5:54:a9:53:32:cd:8f:f6:75:58:8e:05:e4:
                    d9:b1:ac:69:fe:b6:54:c3:ad:36:04:a2:77:f5:53:
                    b6:74:83:d5:6a:01:e0:96:b5:a2:af:50:8f:b5:d7:
                    9d:a7:c2:bd:f8:31:86:09:5f:7c:0a:b2:db:34:e1:
                    80:25:17:5f:7d:6f:8b:dc:8e:d5:f9:cf:cf:f5:f6:
                    8f:6a:fe:3e:96:00:c9:56:b0:d0:e3:46:de:b9:a6:
                    8a:5e:9b:8e:7f:ea:19:cc:a2:5b:75:22:3c:1d:36:
                    48:e4:f2:1a:01:95:61:c1:f0:7a:27:9d:83:96:74:
                    cc:a9:04:42:08:53:34:98:2e:b7:e3:83:f9:f2:a3:
                    29:e1:23:c4:ed:a0:1c:f6:2a:ed:dc:c0:df:97:a9:
                    f3:8d
                Exponent: 65537 (0x10001)
        X509v3 extensions:
            X509v3 Basic Constraints: 
                CA:FALSE
            Netscape Comment: 
                OpenSSL Generated Certificate
            X509v3 Subject Key Identifier: 
                D5:A5:19:6A:3B:38:5F:19:C7:34:C6:BC:68:BE:16:A5:0B:43:57:2D
            X509v3 Authority Key Identifier: 
                keyid:4F:39:5A:C4:BF:78:EF:3D:FC:F1:68:5A:F6:B9:4B:D2:B7:03:C7:87

    Signature Algorithm: sha1WithRSAEncryption
        a0:f1:e6:d4:75:75:10:0e:27:18:28:93:9f:c5:15:2b:f3:52:
        3c:f7:c7:6d:96:b3:7f:65:6c:78:be:26:f5:f2:41:36:f0:b2:
        fb:64:67:73:d2:bf:d7:24:af:30:1e:6f:3a:9c:80:98:34:06:
        11:ba:45:06:57:ec:d9:f0:77:1f:d6:e8:0c:13:9d:d1:15:c7:
        d8:73:fb:aa:dc:0d:3c:4b:3a:bb:87:3c:21:6d:05:9d:fa:74:
        db:61:4c:47:6a:e7:6b:79:2b:3f:62:a8:fc:e6:11:c8:0f:40:
        48:51:71:a2:ad:77:d5:fe:ff:1d:73:82:0c:3c:98:ab:26:9b:
        78:d5
-----BEGIN CERTIFICATE-----
MIIDITCCAoqgAwIBAgIJAKUtLkHp/IqSMA0GCSqGSIb3DQEBBQUAMFIxCzAJBgNV
BAYTAlVTMQswCQYDVQQIEwJDQTEWMBQGA1UEChMNQXBhY2hlIFB1bHNhcjEOMAwG
A1UECxMFUHJveHkxDjAMBgNVBAMTBVByb3h5MB4XDTE4MDIxODA0MDIyN1oXDTMw
MTExNjAwMDAwMFowUjELMAkGA1UEBhMCVVMxCzAJBgNVBAgTAkNBMRYwFAYDVQQK
Ew1BcGFjaGUgUHVsc2FyMQ4wDAYDVQQLEwVQcm94eTEOMAwGA1UEAxMFUHJveHkw
ggEiMA0GCSqGSIb3DQEBAQUAA4IBDwAwggEKAoIBAQDDXMWtF9z01MTqHGBaJEYT
2c/AzYMuL4Jw5eCNM72Vtc/G8FTVjb2HDWJsHT9SZnT/BjMcPNXtLmPZlsbxmILH
lEq8ZPKbOlTsgZm8FIJDhwxr2gOMqgtB1/4nxPmIgTSx/yrgbdBH3cERpVSpUzLN
j/Z1WI4F5NmxrGn+tlTDrTYEonf1U7Z0g9VqAeCWtaKvUI+1152nwr34MYYJX3wK
sts04YAlF199b4vcjtX5z8/19o9q/j6WAMlWsNDjRt65popem45/6hnMolt1Ijwd
Nkjk8hoBlWHB8HonnYOWdMypBEIIUzSYLrfjg/nyoynhI8TtoBz2Ku3cwN+XqfON
AgMBAAGjezB5MAkGA1UdEwQCMAAwLAYJYIZIAYb4QgENBB8WHU9wZW5TU0wgR2Vu
ZXJhdGVkIENlcnRpZmljYXRlMB0GA1UdDgQWBBTVpRlqOzhfGcc0xrxovhalC0NX
LTAfBgNVHSMEGDAWgBRPOVrEv3jvPfzxaFr2uUvStwPHhzANBgkqhkiG9w0BAQUF
AAOBgQCg8ebUdXUQDicYKJOfxRUr81I898dtlrN/ZWx4vib18kE28LL7ZGdz0r/X
JK8wHm86nICYNAYRukUGV+zZ8Hcf1ugME53RFcfYc/uq3A08Szq7hzwhbQWd+nTb
YUxHaudreSs/Yqj85hHID0BIUXGirXfV/v8dc4IMPJirJpt41Q==
-----END CERTIFICATE-----
