Certificate:
    Data:
        Version: 3 (0x2)
        Serial Number:
            2d:fc:78:73:ca:55:1e:32:12:3e:ef:08:24:cf:63:95:1e:ad:ea:ae
        Signature Algorithm: sha256WithRSAEncryption
        Issuer: CN = CARoot
        Validity
            Not Before: Apr 23 17:08:51 2021 GMT
            Not After : Apr 21 17:08:51 2031 GMT
        Subject: CN = CARoot
        Subject Public Key Info:
            Public Key Algorithm: rsaEncryption
                RSA Public-Key: (2048 bit)
                Modulus:
                    00:c3:e0:f7:5d:bb:9a:76:ee:84:c6:2d:79:3f:a6:
                    4b:3b:1f:32:31:d9:65:80:d3:02:13:23:2a:f1:2f:
                    e6:ac:bc:24:d1:cb:b9:5b:ed:cb:63:fe:31:e4:e6:
                    b8:f3:13:72:be:48:57:cb:d1:70:0f:67:16:6d:26:
                    bc:23:1c:64:30:ee:c8:0e:0e:68:d9:43:7e:42:74:
                    7a:d4:59:a4:76:67:70:9f:85:aa:f3:9f:6c:e6:a1:
                    b5:06:3c:1d:46:38:45:05:df:88:cc:3a:ad:6c:72:
                    96:69:55:d0:b2:a8:ed:fd:b8:07:6b:5c:6d:1c:0d:
                    98:c2:88:3f:59:3c:d6:6c:ab:df:dd:3a:c0:5c:fe:
                    86:74:38:bc:00:d4:f0:50:ea:f0:e6:74:23:48:6d:
                    63:77:c7:f6:e2:94:f8:1b:0f:51:98:f6:fb:e0:20:
                    58:c1:b6:a0:58:08:6f:ad:05:f7:71:90:b3:1a:5b:
                    24:88:0b:ed:71:26:aa:84:c2:21:97:76:e7:d5:77:
                    30:62:15:d4:30:5e:f9:aa:bc:7f:1f:50:5e:92:47:
                    f2:92:c0:85:cf:ce:33:07:24:e9:ee:b7:04:0d:b7:
                    9f:82:ae:a0:b6:73:51:8f:fe:bd:2c:f3:b5:76:61:
                    3c:da:c6:c0:bd:44:46:6f:43:9d:47:b6:0a:80:a5:
                    fe:3b
                Exponent: 65537 (0x10001)
        X509v3 extensions:
            X509v3 Subject Key Identifier: 
                4E:9B:EB:E2:41:17:D1:24:AF:39:02:BC:42:D6:81:B7:62:6D:E3:57
            X509v3 Authority Key Identifier: 
                keyid:4E:9B:EB:E2:41:17:D1:24:AF:39:02:BC:42:D6:81:B7:62:6D:E3:57

            X509v3 Basic Constraints: critical
                CA:TRUE
    Signature Algorithm: sha256WithRSAEncryption
         16:01:53:ab:85:57:5f:92:b9:24:85:c5:70:02:fa:fe:ae:ff:
         e9:3e:36:24:6e:9e:34:dd:7c:56:f9:31:a1:d1:ae:63:af:3c:
         2c:e5:8e:47:34:df:b0:1c:33:48:3f:e7:32:fd:a8:38:99:a6:
         ef:e1:7b:65:92:80:1e:68:e5:98:db:c5:50:4a:35:53:e5:86:
         89:56:85:0c:6e:da:64:28:68:33:dc:29:3f:41:8b:cf:9c:ec:
         fc:74:15:19:ff:da:0a:ef:d0:51:67:97:ad:2f:e4:8a:94:52:
         96:18:bd:77:b3:2b:79:9a:f8:de:af:0f:a2:65:c4:f2:88:3a:
         57:79:18:e1:d8:7c:e0:52:da:35:8c:dd:d9:75:0d:72:e9:e8:
         d0:a7:a6:0b:49:88:6d:ed:86:45:25:72:15:4e:2a:0b:6f:9c:
         2f:48:75:28:b0:aa:cd:15:7f:ae:b3:b7:ec:75:d9:63:c8:46:
         8f:84:49:1c:e2:db:95:7b:3d:bb:fd:98:45:53:56:3c:3c:de:
         60:16:f9:14:b8:7e:27:37:be:f0:69:b5:a0:18:bc:83:1e:c1:
         3a:11:9b:a3:1d:1f:a6:9c:7e:c9:aa:7c:53:44:9e:1d:cb:ca:
         c8:22:7f:cc:ad:e6:fa:51:54:4d:b5:a1:e6:e3:04:4e:49:1e:
         67:9c:93:30
-----BEGIN CERTIFICATE-----
MIIDAzCCAeugAwIBAgIULfx4c8pVHjISPu8IJM9jlR6t6q4wDQYJKoZIhvcNAQEL
BQAwETEPMA0GA1UEAwwGQ0FSb290MB4XDTIxMDQyMzE3MDg1MVoXDTMxMDQyMTE3
MDg1MVowETEPMA0GA1UEAwwGQ0FSb290MIIBIjANBgkqhkiG9w0BAQEFAAOCAQ8A
MIIBCgKCAQEAw+D3Xbuadu6Exi15P6ZLOx8yMdllgNMCEyMq8S/mrLwk0cu5W+3L
Y/4x5Oa48xNyvkhXy9FwD2cWbSa8IxxkMO7IDg5o2UN+QnR61Fmkdmdwn4Wq859s
5qG1BjwdRjhFBd+IzDqtbHKWaVXQsqjt/bgHa1xtHA2Ywog/WTzWbKvf3TrAXP6G
dDi8ANTwUOrw5nQjSG1jd8f24pT4Gw9RmPb74CBYwbagWAhvrQX3cZCzGlskiAvt
cSaqhMIhl3bn1XcwYhXUMF75qrx/H1BekkfyksCFz84zByTp7rcEDbefgq6gtnNR
j/69LPO1dmE82sbAvURGb0OdR7YKgKX+OwIDAQABo1MwUTAdBgNVHQ4EFgQUTpvr
4kEX0SSvOQK8QtaBt2Jt41cwHwYDVR0jBBgwFoAUTpvr4kEX0SSvOQK8QtaBt2Jt
41cwDwYDVR0TAQH/BAUwAwEB/zANBgkqhkiG9w0BAQsFAAOCAQEAFgFTq4VXX5K5
JIXFcAL6/q7/6T42JG6eNN18VvkxodGuY688LOWORzTfsBwzSD/nMv2oOJmm7+F7
ZZKAHmjlmNvFUEo1U+WGiVaFDG7aZChoM9wpP0GLz5zs/HQVGf/aCu/QUWeXrS/k
ipRSlhi9d7MreZr43q8PomXE8og6V3kY4dh84FLaNYzd2XUNcuno0KemC0mIbe2G
RSVyFU4qC2+cL0h1KLCqzRV/rrO37HXZY8hGj4RJHOLblXs9u/2YRVNWPDzeYBb5
FLh+Jze+8Gm1oBi8gx7BOhGbox0fppx+yap8U0SeHcvKyCJ/zK3m+lFUTbWh5uME
TkkeZ5yTMA==
-----END CERTIFICATE-----
