Certificate:
    Data:
        Version: 3 (0x2)
        Serial Number: 15537474201172114491 (0xd7a0327703a8fc3b)
    Signature Algorithm: sha256WithRSAEncryption
        Issuer: CN=CARoot
        Validity
            Not Before: Feb 22 06:26:32 2023 GMT
            Not After : Feb 19 06:26:32 2033 GMT
        Subject: C=US, ST=CA, O=Apache Pulsar, OU=Proxy, CN=Proxy
        Subject Public Key Info:
            Public Key Algorithm: rsaEncryption
                Public-Key: (2048 bit)
                Modulus:
                    00:c3:5c:c5:ad:17:dc:f4:d4:c4:ea:1c:60:5a:24:
                    46:13:d9:cf:c0:cd:83:2e:2f:82:70:e5:e0:8d:33:
                    bd:95:b5:cf:c6:f0:54:d5:8d:bd:87:0d:62:6c:1d:
                    3f:52:66:74:ff:06:33:1c:3c:d5:ed:2e:63:d9:96:
                    c6:f1:98:82:c7:94:4a:bc:64:f2:9b:3a:54:ec:81:
                    99:bc:14:82:43:87:0c:6b:da:03:8c:aa:0b:41:d7:
                    fe:27:c4:f9:88:81:34:b1:ff:2a:e0:6d:d0:47:dd:
                    c1:11:a5:54:a9:53:32:cd:8f:f6:75:58:8e:05:e4:
                    d9:b1:ac:69:fe:b6:54:c3:ad:36:04:a2:77:f5:53:
                    b6:74:83:d5:6a:01:e0:96:b5:a2:af:50:8f:b5:d7:
                    9d:a7:c2:bd:f8:31:86:09:5f:7c:0a:b2:db:34:e1:
                    80:25:17:5f:7d:6f:8b:dc:8e:d5:f9:cf:cf:f5:f6:
                    8f:6a:fe:3e:96:00:c9:56:b0:d0:e3:46:de:b9:a6:
                    8a:5e:9b:8e:7f:ea:19:cc:a2:5b:75:22:3c:1d:36:
                    48:e4:f2:1a:01:95:61:c1:f0:7a:27:9d:83:96:74:
                    cc:a9:04:42:08:53:34:98:2e:b7:e3:83:f9:f2:a3:
                    29:e1:23:c4:ed:a0:1c:f6:2a:ed:dc:c0:df:97:a9:
                    f3:8d
                Exponent: 65537 (0x10001)
        X509v3 extensions:
            X509v3 Subject Alternative Name: 
                DNS:localhost, IP Address:127.0.0.1
    Signature Algorithm: sha256WithRSAEncryption
         93:72:f7:a5:ba:a1:ba:0f:50:d4:cd:c4:63:a6:5d:1f:9e:62:
         8c:87:45:05:78:f7:27:c2:e3:1c:b3:eb:a2:00:88:f4:77:4d:
         9e:f8:cc:26:0c:fd:03:56:fc:d3:23:59:93:69:46:6f:72:94:
         4f:b9:ba:2f:d5:66:f8:ed:00:89:e9:e7:87:fa:0e:5a:9d:1b:
         b9:f7:0f:dd:c6:ab:83:1d:f9:5d:1a:8a:f9:0e:34:f4:85:2c:
         69:cd:37:44:93:ab:6b:4b:14:0f:a2:72:56:0b:82:60:47:82:
         50:ba:5c:f6:2f:3d:da:f8:42:40:39:f8:4a:bf:f1:30:ec:7f:
         bd:5d:ce:4a:0e:15:3b:ca:d8:12:8e:da:58:f0:d5:b2:a0:82:
         d2:2b:60:21:10:57:a5:73:30:4c:67:82:32:fe:2a:d4:b1:87:
         cf:33:bb:9e:c4:9c:2d:ce:99:d5:9f:9f:30:3e:5f:f4:49:40:
         d0:1a:6e:90:ab:88:d6:c3:f6:36:11:52:e1:97:ea:3a:ce:ee:
         49:04:57:6d:5c:6f:a6:ca:21:21:7e:4d:0a:b6:7a:c5:14:f2:
         39:00:59:de:88:30:74:f2:46:a8:95:a4:19:a4:0f:bd:b5:b0:
         f1:41:c8:8b:70:c7:67:a8:d0:b2:3b:21:4f:73:fd:16:e6:1d:
         a0:71:b0:33
-----BEGIN CERTIFICATE-----
MIIDBDCCAeygAwIBAgIJANegMncDqPw7MA0GCSqGSIb3DQEBCwUAMBExDzANBgNV
BAMMBkNBUm9vdDAeFw0yMzAyMjIwNjI2MzJaFw0zMzAyMTkwNjI2MzJaMFIxCzAJ
BgNVBAYTAlVTMQswCQYDVQQIEwJDQTEWMBQGA1UEChMNQXBhY2hlIFB1bHNhcjEO
MAwGA1UECxMFUHJveHkxDjAMBgNVBAMTBVByb3h5MIIBIjANBgkqhkiG9w0BAQEF
AAOCAQ8AMIIBCgKCAQEAw1zFrRfc9NTE6hxgWiRGE9nPwM2DLi+CcOXgjTO9lbXP
xvBU1Y29hw1ibB0/UmZ0/wYzHDzV7S5j2ZbG8ZiCx5RKvGTymzpU7IGZvBSCQ4cM
a9oDjKoLQdf+J8T5iIE0sf8q4G3QR93BEaVUqVMyzY/2dViOBeTZsaxp/rZUw602
BKJ39VO2dIPVagHglrWir1CPtdedp8K9+DGGCV98CrLbNOGAJRdffW+L3I7V+c/P
9faPav4+lgDJVrDQ40beuaaKXpuOf+oZzKJbdSI8HTZI5PIaAZVhwfB6J52DlnTM
qQRCCFM0mC6344P58qMp4SPE7aAc9irt3MDfl6nzjQIDAQABox4wHDAaBgNVHREE
EzARgglsb2NhbGhvc3SHBH8AAAEwDQYJKoZIhvcNAQELBQADggEBAJNy96W6oboP
UNTNxGOmXR+eYoyHRQV49yfC4xyz66IAiPR3TZ74zCYM/QNW/NMjWZNpRm9ylE+5
ui/VZvjtAInp54f6DlqdG7n3D93Gq4Md+V0aivkONPSFLGnNN0STq2tLFA+iclYL
gmBHglC6XPYvPdr4QkA5+Eq/8TDsf71dzkoOFTvK2BKO2ljw1bKggtIrYCEQV6Vz
MExngjL+KtSxh88zu57EnC3OmdWfnzA+X/RJQNAabpCriNbD9jYRUuGX6jrO7kkE
V21cb6bKISF+TQq2esUU8jkAWd6IMHTyRqiVpBmkD721sPFByItwx2eo0LI7IU9z
/RbmHaBxsDM=
-----END CERTIFICATE-----
