Certificate:
    Data:
        Version: 1 (0x0)
        Serial Number:
            0c:26:15:df:8f:71:1d:6a:31:d0:da:af:64:ef:80:de:ac:9a:46:7a
        Signature Algorithm: sha256WithRSAEncryption
        Issuer: CN = CARoot
        Validity
            Not Before: Apr 23 17:08:51 2021 GMT
            Not After : Apr 21 17:08:51 2031 GMT
        Subject: C = US, ST = CA, O = Apache Pulsar, OU = Proxy, CN = Proxy
        Subject Public Key Info:
            Public Key Algorithm: rsaEncryption
                RSA Public-Key: (2048 bit)
                Modulus:
                    00:c3:5c:c5:ad:17:dc:f4:d4:c4:ea:1c:60:5a:24:
                    46:13:d9:cf:c0:cd:83:2e:2f:82:70:e5:e0:8d:33:
                    bd:95:b5:cf:c6:f0:54:d5:8d:bd:87:0d:62:6c:1d:
                    3f:52:66:74:ff:06:33:1c:3c:d5:ed:2e:63:d9:96:
                    c6:f1:98:82:c7:94:4a:bc:64:f2:9b:3a:54:ec:81:
                    99:bc:14:82:43:87:0c:6b:da:03:8c:aa:0b:41:d7:
                    fe:27:c4:f9:88:81:34:b1:ff:2a:e0:6d:d0:47:dd:
                    c1:11:a5:54:a9:53:32:cd:8f:f6:75:58:8e:05:e4:
                    d9:b1:ac:69:fe:b6:54:c3:ad:36:04:a2:77:f5:53:
                    b6:74:83:d5:6a:01:e0:96:b5:a2:af:50:8f:b5:d7:
                    9d:a7:c2:bd:f8:31:86:09:5f:7c:0a:b2:db:34:e1:
                    80:25:17:5f:7d:6f:8b:dc:8e:d5:f9:cf:cf:f5:f6:
                    8f:6a:fe:3e:96:00:c9:56:b0:d0:e3:46:de:b9:a6:
                    8a:5e:9b:8e:7f:ea:19:cc:a2:5b:75:22:3c:1d:36:
                    48:e4:f2:1a:01:95:61:c1:f0:7a:27:9d:83:96:74:
                    cc:a9:04:42:08:53:34:98:2e:b7:e3:83:f9:f2:a3:
                    29:e1:23:c4:ed:a0:1c:f6:2a:ed:dc:c0:df:97:a9:
                    f3:8d
                Exponent: 65537 (0x10001)
    Signature Algorithm: sha256WithRSAEncryption
         7b:27:a8:2a:54:35:76:e5:f8:a7:60:8d:e7:35:12:69:38:f3:
         32:af:25:0f:69:1a:b1:af:79:e5:7c:94:5c:8f:aa:76:95:54:
         35:b4:bb:64:20:1a:91:1e:b3:e4:d1:06:72:24:c3:35:bd:9c:
         f6:54:61:d9:39:22:99:42:08:d4:97:aa:7d:82:46:fc:77:58:
         df:93:29:03:6c:ba:1c:13:d1:42:49:32:f1:38:09:d3:3e:43:
         89:1b:61:c4:40:f3:ac:4c:c1:36:2f:28:bd:57:a0:de:35:82:
         c9:da:93:5f:09:d6:e8:5b:cd:15:45:b3:28:22:7d:48:00:c4:
         55:0f:f6:de:d9:c2:0a:39:5e:69:a4:50:9b:3f:e1:06:44:8a:
         13:af:0b:56:8d:70:c4:9f:d1:a2:b4:25:09:8b:19:47:e8:d2:
         98:49:2a:a0:8b:fe:8c:cb:23:d8:f8:e6:28:c6:d9:0b:10:7c:
         d3:ce:48:07:8d:c7:56:bb:c9:e8:d7:a8:a1:24:93:bf:5f:d2:
         a9:f1:35:b7:40:ad:08:bf:89:63:e5:49:40:13:e7:1e:6a:77:
         7f:9a:5b:07:0c:eb:80:77:b0:ac:fa:8a:9d:b8:83:53:a1:1e:
         0e:14:2b:c9:50:96:81:c2:c0:0b:d1:c6:b6:2e:ea:98:3e:7b:
         ee:5f:09:f7
-----BEGIN CERTIFICATE-----
MIIC6jCCAdICFAwmFd+PcR1qMdDar2TvgN6smkZ6MA0GCSqGSIb3DQEBCwUAMBEx
DzANBgNVBAMMBkNBUm9vdDAeFw0yMTA0MjMxNzA4NTFaFw0zMTA0MjExNzA4NTFa
MFIxCzAJBgNVBAYTAlVTMQswCQYDVQQIEwJDQTEWMBQGA1UEChMNQXBhY2hlIFB1
bHNhcjEOMAwGA1UECxMFUHJveHkxDjAMBgNVBAMTBVByb3h5MIIBIjANBgkqhkiG
9w0BAQEFAAOCAQ8AMIIBCgKCAQEAw1zFrRfc9NTE6hxgWiRGE9nPwM2DLi+CcOXg
jTO9lbXPxvBU1Y29hw1ibB0/UmZ0/wYzHDzV7S5j2ZbG8ZiCx5RKvGTymzpU7IGZ
vBSCQ4cMa9oDjKoLQdf+J8T5iIE0sf8q4G3QR93BEaVUqVMyzY/2dViOBeTZsaxp
/rZUw602BKJ39VO2dIPVagHglrWir1CPtdedp8K9+DGGCV98CrLbNOGAJRdffW+L
3I7V+c/P9faPav4+lgDJVrDQ40beuaaKXpuOf+oZzKJbdSI8HTZI5PIaAZVhwfB6
J52DlnTMqQRCCFM0mC6344P58qMp4SPE7aAc9irt3MDfl6nzjQIDAQABMA0GCSqG
SIb3DQEBCwUAA4IBAQB7J6gqVDV25finYI3nNRJpOPMyryUPaRqxr3nlfJRcj6p2
lVQ1tLtkIBqRHrPk0QZyJMM1vZz2VGHZOSKZQgjUl6p9gkb8d1jfkykDbLocE9FC
STLxOAnTPkOJG2HEQPOsTME2Lyi9V6DeNYLJ2pNfCdboW80VRbMoIn1IAMRVD/be
2cIKOV5ppFCbP+EGRIoTrwtWjXDEn9GitCUJixlH6NKYSSqgi/6MyyPY+OYoxtkL
EHzTzkgHjcdWu8no16ihJJO/X9Kp8TW3QK0Iv4lj5UlAE+ceand/mlsHDOuAd7Cs
+oqduINToR4OFCvJUJaBwsAL0ca2LuqYPnvuXwn3
-----END CERTIFICATE-----
