Certificate:
    Data:
        Version: 3 (0x2)
        Serial Number:
            a5:2d:2e:41:e9:fc:8a:91
        Signature Algorithm: sha1WithRSAEncryption
        Issuer: C=US, ST=CA, O=Apache Pulsar, OU=Proxy, CN=Proxy
        Validity
            Not Before: Feb 18 04:00:32 2018 GMT
            Not After : Feb 17 04:00:32 2021 GMT
        Subject: C=US, ST=CA, O=Apache Pulsar, OU=Proxy, CN=Proxy
        Subject Public Key Info:
            Public Key Algorithm: rsaEncryption
            RSA Public Key: (1024 bit)
                Modulus (1024 bit):
                    00:aa:ce:ea:82:4f:ac:a8:97:7b:0c:33:cd:ef:7f:
                    24:45:e5:81:a2:2c:7a:ab:65:34:27:27:39:ae:f4:
                    b2:f3:0e:cc:08:3b:8e:1d:78:95:aa:95:01:0e:a3:
                    df:db:4b:9a:ad:85:e6:af:96:16:41:35:dc:b2:23:
                    03:ff:b9:d6:75:25:29:37:f5:3f:26:43:c3:36:a0:
                    9c:0f:36:a5:91:dd:7d:18:5d:45:24:d3:f6:bf:86:
                    91:91:10:b5:00:bf:12:6a:01:9f:28:38:01:08:5f:
                    fd:a8:6d:98:33:cc:77:fb:a1:fe:06:59:92:6d:0b:
                    14:bc:9b:59:fd:98:69:ec:6d
                Exponent: 65537 (0x10001)
        X509v3 extensions:
            X509v3 Subject Key Identifier: 
                4F:39:5A:C4:BF:78:EF:3D:FC:F1:68:5A:F6:B9:4B:D2:B7:03:C7:87
            X509v3 Authority Key Identifier: 
                keyid:4F:39:5A:C4:BF:78:EF:3D:FC:F1:68:5A:F6:B9:4B:D2:B7:03:C7:87
                DirName:/C=US/ST=CA/O=Apache Pulsar/OU=Proxy/CN=Proxy
                serial:A5:2D:2E:41:E9:FC:8A:91

            X509v3 Basic Constraints: 
                CA:TRUE
    Signature Algorithm: sha1WithRSAEncryption
        84:e1:30:a5:a5:7e:39:9b:2a:1f:cb:1e:67:c6:00:75:f3:8f:
        6a:d0:ef:d7:46:39:2c:b6:ba:1f:03:7d:eb:cf:22:ef:46:82:
        bb:89:08:dd:3f:28:b3:6e:79:1a:14:26:ed:38:2f:f0:c9:fe:
        7f:72:5c:8a:82:b8:05:fe:f7:45:6c:e9:6e:ff:f9:d3:a4:60:
        1a:e9:7b:71:c8:a1:80:3d:0f:33:44:06:30:c7:c9:2f:8f:e4:
        5d:68:25:cb:28:49:5a:5d:ac:10:f7:d2:90:cf:0c:1f:ff:7c:
        7b:04:95:a7:b9:27:d9:66:ac:73:6e:92:84:de:68:fc:86:27:
        e8:d3
-----BEGIN CERTIFICATE-----
MIIC2DCCAkGgAwIBAgIJAKUtLkHp/IqRMA0GCSqGSIb3DQEBBQUAMFIxCzAJBgNV
BAYTAlVTMQswCQYDVQQIEwJDQTEWMBQGA1UEChMNQXBhY2hlIFB1bHNhcjEOMAwG
A1UECxMFUHJveHkxDjAMBgNVBAMTBVByb3h5MB4XDTE4MDIxODA0MDAzMloXDTIx
MDIxNzA0MDAzMlowUjELMAkGA1UEBhMCVVMxCzAJBgNVBAgTAkNBMRYwFAYDVQQK
Ew1BcGFjaGUgUHVsc2FyMQ4wDAYDVQQLEwVQcm94eTEOMAwGA1UEAxMFUHJveHkw
gZ8wDQYJKoZIhvcNAQEBBQADgY0AMIGJAoGBAKrO6oJPrKiXewwzze9/JEXlgaIs
eqtlNCcnOa70svMOzAg7jh14laqVAQ6j39tLmq2F5q+WFkE13LIjA/+51nUlKTf1
PyZDwzagnA82pZHdfRhdRSTT9r+GkZEQtQC/EmoBnyg4AQhf/ahtmDPMd/uh/gZZ
km0LFLybWf2YaextAgMBAAGjgbUwgbIwHQYDVR0OBBYEFE85WsS/eO89/PFoWva5
S9K3A8eHMIGCBgNVHSMEezB5gBRPOVrEv3jvPfzxaFr2uUvStwPHh6FWpFQwUjEL
MAkGA1UEBhMCVVMxCzAJBgNVBAgTAkNBMRYwFAYDVQQKEw1BcGFjaGUgUHVsc2Fy
MQ4wDAYDVQQLEwVQcm94eTEOMAwGA1UEAxMFUHJveHmCCQClLS5B6fyKkTAMBgNV
HRMEBTADAQH/MA0GCSqGSIb3DQEBBQUAA4GBAIThMKWlfjmbKh/LHmfGAHXzj2rQ
79dGOSy2uh8DfevPIu9GgruJCN0/KLNueRoUJu04L/DJ/n9yXIqCuAX+90Vs6W7/
+dOkYBrpe3HIoYA9DzNEBjDHyS+P5F1oJcsoSVpdrBD30pDPDB//fHsElae5J9lm
rHNukoTeaPyGJ+jT
-----END CERTIFICATE-----
