Certificate:
    Data:
        Version: 3 (0x2)
        Serial Number: 4098 (0x1002)
    Signature Algorithm: sha256WithRSAEncryption
        Issuer: C=US, ST=California, L=Palo Alto, O=Apache Software Foundation, OU=Pulsar, CN=Pulsar CA/emailAddress=dev@pulsar.apache.org
        Validity
            Not Before: Feb 17 17:00:44 2021 GMT
            Not After : Feb 12 17:00:44 2041 GMT
        Subject: C=US, ST=California, O=Apache Software Foundation, OU=Pulsar, CN=localhost/emailAddress=dev@pulsar.apache.org
        Subject Public Key Info:
            Public Key Algorithm: rsaEncryption
                Public-Key: (2048 bit)
                Modulus:
                    00:9b:2a:6f:24:02:23:f7:ff:e6:75:61:ca:07:a8:
                    c0:ab:e9:8d:eb:51:2e:64:f7:9e:9b:d4:b4:be:3a:
                    fa:f4:6e:c6:92:8f:38:4d:08:cd:89:15:3e:2c:c4:
                    99:6d:cb:58:80:fc:e0:4d:d6:7d:f6:82:ab:0d:94:
                    f2:e2:45:c9:d3:15:95:57:0a:6c:86:dc:78:64:3b:
                    34:4b:01:7c:5d:de:4f:d4:21:1a:5d:27:a0:a5:70:
                    7a:2e:02:50:e1:19:b4:b9:05:df:99:0d:8b:cc:62:
                    dc:10:73:fa:72:8b:38:7f:d3:56:54:61:50:bb:92:
                    ff:09:71:09:c7:bd:04:43:3c:8c:9c:8b:32:d1:05:
                    04:8a:c6:89:d8:78:56:4d:da:2f:f4:ec:34:37:26:
                    b5:87:e4:3f:26:c9:41:60:ba:31:10:19:be:f8:0c:
                    a4:0a:85:19:59:e2:00:5d:b7:c0:bd:d1:2e:fc:a6:
                    34:8b:85:2a:cc:05:f6:fb:e4:00:e6:74:95:ff:02:
                    6f:43:7f:39:a7:c2:83:8e:5b:38:40:c9:42:c8:bc:
                    26:72:36:35:64:c2:54:22:11:87:e8:65:8f:3d:e9:
                    41:a7:6d:19:88:9a:20:9b:9a:52:e7:d2:cb:b3:e0:
                    2e:8f:c1:56:54:bc:6d:14:30:73:c5:d7:8e:d0:5a:
                    5e:cd
                Exponent: 65537 (0x10001)
        X509v3 extensions:
            X509v3 Basic Constraints:
                CA:FALSE
            Netscape Cert Type:
                SSL Server
            Netscape Comment:
                OpenSSL Generated Server Certificate
            X509v3 Subject Key Identifier:
                49:3C:B2:98:30:CE:7F:79:7A:C6:8B:57:CA:24:9F:12:82:1E:5D:EF
            X509v3 Authority Key Identifier:
                keyid:D2:B2:3D:B1:A4:7C:48:4B:36:E1:A7:DE:D8:FC:BA:92:BA:A7:C4:71
                DirName:/C=US/ST=California/L=Palo Alto/O=Apache Software Foundation/OU=Pulsar/CN=Pulsar CA/emailAddress=dev@pulsar.apache.org
                serial:52:7B:B4:00:96:60:B4:26:85:BE:01:82:B8:B8:E2:8C:72:EF:5B:90

            X509v3 Key Usage: critical
                Digital Signature, Key Encipherment
            X509v3 Extended Key Usage:
                TLS Web Server Authentication
    Signature Algorithm: sha256WithRSAEncryption
         0f:bd:af:39:0c:2c:dc:8f:7e:06:0d:27:df:35:c7:8d:5a:03:
         68:97:f6:dc:d6:d3:39:0e:b4:76:48:7d:e1:1c:a9:4b:83:fa:
         52:00:ab:28:93:2d:06:76:0c:14:35:3c:f1:8e:3b:af:c8:d0:
         27:1f:58:d4:71:22:5f:05:a6:9e:73:c6:a5:5e:2a:e6:fb:eb:
         fc:73:52:87:ca:8a:2a:f9:1e:5f:e2:b9:bd:01:27:9f:7c:61:
         a6:97:ad:a0:ab:4e:fb:cc:fa:c8:77:6a:65:1b:ae:60:5e:fb:
         97:14:8c:40:d7:96:c6:2c:64:59:c0:52:52:7c:2d:98:4b:f4:
         72:da:83:f7:c6:4f:32:42:ce:df:02:dd:5f:eb:58:42:f9:62:
         a1:9a:05:ef:13:48:27:af:a3:7f:23:eb:e0:dc:1d:8f:96:2a:
         88:47:f7:e4:75:6f:a9:15:f6:44:f1:6d:39:3a:2c:df:a7:82:
         cc:7e:aa:9c:1c:c0:a7:7d:68:31:4a:4e:21:b8:9f:17:90:4b:
         f1:68:23:ef:a7:53:fc:a9:a8:35:6b:8f:4c:5e:d4:ea:b0:8a:
         27:9a:86:89:ce:f2:5d:03:35:80:fc:45:e8:87:66:0f:32:b5:
         2a:f5:1b:79:0e:09:8b:90:40:20:fb:e3:27:8a:c9:92:c1:53:
         97:10:5a:8c:50:ef:02:46:7e:ec:68:c8:1e:26:66:0e:1d:d6:
         6c:82:e7:38:14:e8:cb:45:77:29:5f:2c:1a:9d:d7:54:21:8a:
         cf:0f:b7:0c:ae:fe:d6:fb:fb:c3:07:3e:33:df:59:25:1c:73:
         d4:87:73:14:b4:76:16:8a:3f:82:05:7b:42:0a:55:0c:79:24:
         3c:58:31:3f:e0:3e:9f:4e:d0:0e:fd:77:b7:13:2c:d3:d0:46:
         cc:80:09:0f:50:56:8b:6e:6e:91:b2:5b:c8:2f:4d:86:dc:72:
         00:de:08:0d:5e:3e:96:1f:12:7d:3b:0d:4d:71:d5:c8:a8:06:
         ba:00:23:ec:10:4c:a4:c3:6f:bc:f0:d7:b1:cf:57:3f:3b:79:
         db:80:87:35:c7:4e:7f:bb:38:30:0a:9f:fe:5a:86:f5:97:ce:
         24:38:79:fd:a0:dc:0b:82:11:a1:ea:0c:e9:16:65:e0:c0:54:
         80:ad:6e:55:18:ac:27:35:3a:b0:20:70:62:8e:5d:a2:33:53:
         8c:ce:f9:ee:a1:27:cb:db:e5:9a:5e:e6:f7:80:93:84:63:04:
         26:58:ab:23:bb:94:80:d0:a0:55:a2:8a:ed:bc:0f:c3:41:d2:
         26:a5:b9:8d:8a:45:e8:a1:fc:e8:ee:7a:64:93:ed:d6:ef:a2:
         51:d7:c9:0a:31:39:35:4a
-----BEGIN CERTIFICATE-----
MIIGPDCCBCSgAwIBAgICEAIwDQYJKoZIhvcNAQELBQAwgaYxCzAJBgNVBAYTAlVT
MRMwEQYDVQQIDApDYWxpZm9ybmlhMRIwEAYDVQQHDAlQYWxvIEFsdG8xIzAhBgNV
BAoMGkFwYWNoZSBTb2Z0d2FyZSBGb3VuZGF0aW9uMQ8wDQYDVQQLDAZQdWxzYXIx
EjAQBgNVBAMMCVB1bHNhciBDQTEkMCIGCSqGSIb3DQEJARYVZGV2QHB1bHNhci5h
cGFjaGUub3JnMB4XDTIxMDIxNzE3MDA0NFoXDTQxMDIxMjE3MDA0NFowgZIxCzAJ
BgNVBAYTAlVTMRMwEQYDVQQIDApDYWxpZm9ybmlhMSMwIQYDVQQKDBpBcGFjaGUg
U29mdHdhcmUgRm91bmRhdGlvbjEPMA0GA1UECwwGUHVsc2FyMRIwEAYDVQQDDAls
b2NhbGhvc3QxJDAiBgkqhkiG9w0BCQEWFWRldkBwdWxzYXIuYXBhY2hlLm9yZzCC
ASIwDQYJKoZIhvcNAQEBBQADggEPADCCAQoCggEBAJsqbyQCI/f/5nVhygeowKvp
jetRLmT3npvUtL46+vRuxpKPOE0IzYkVPizEmW3LWID84E3WffaCqw2U8uJFydMV
lVcKbIbceGQ7NEsBfF3eT9QhGl0noKVwei4CUOEZtLkF35kNi8xi3BBz+nKLOH/T
VlRhULuS/wlxCce9BEM8jJyLMtEFBIrGidh4Vk3aL/TsNDcmtYfkPybJQWC6MRAZ
vvgMpAqFGVniAF23wL3RLvymNIuFKswF9vvkAOZ0lf8Cb0N/OafCg45bOEDJQsi8
JnI2NWTCVCIRh+hljz3pQadtGYiaIJuaUufSy7PgLo/BVlS8bRQwc8XXjtBaXs0C
AwEAAaOCAYQwggGAMAkGA1UdEwQCMAAwEQYJYIZIAYb4QgEBBAQDAgZAMDMGCWCG
SAGG+EIBDQQmFiRPcGVuU1NMIEdlbmVyYXRlZCBTZXJ2ZXIgQ2VydGlmaWNhdGUw
HQYDVR0OBBYEFEk8spgwzn95esaLV8oknxKCHl3vMIHmBgNVHSMEgd4wgduAFNKy
PbGkfEhLNuGn3tj8upK6p8RxoYGspIGpMIGmMQswCQYDVQQGEwJVUzETMBEGA1UE
CAwKQ2FsaWZvcm5pYTESMBAGA1UEBwwJUGFsbyBBbHRvMSMwIQYDVQQKDBpBcGFj
aGUgU29mdHdhcmUgRm91bmRhdGlvbjEPMA0GA1UECwwGUHVsc2FyMRIwEAYDVQQD
DAlQdWxzYXIgQ0ExJDAiBgkqhkiG9w0BCQEWFWRldkBwdWxzYXIuYXBhY2hlLm9y
Z4IUUnu0AJZgtCaFvgGCuLjijHLvW5AwDgYDVR0PAQH/BAQDAgWgMBMGA1UdJQQM
MAoGCCsGAQUFBwMBMA0GCSqGSIb3DQEBCwUAA4ICAQAPva85DCzcj34GDSffNceN
WgNol/bc1tM5DrR2SH3hHKlLg/pSAKsoky0GdgwUNTzxjjuvyNAnH1jUcSJfBaae
c8alXirm++v8c1KHyooq+R5f4rm9ASeffGGml62gq077zPrId2plG65gXvuXFIxA
15bGLGRZwFJSfC2YS/Ry2oP3xk8yQs7fAt1f61hC+WKhmgXvE0gnr6N/I+vg3B2P
liqIR/fkdW+pFfZE8W05Oizfp4LMfqqcHMCnfWgxSk4huJ8XkEvxaCPvp1P8qag1
a49MXtTqsIonmoaJzvJdAzWA/EXoh2YPMrUq9Rt5DgmLkEAg++MnismSwVOXEFqM
UO8CRn7saMgeJmYOHdZsguc4FOjLRXcpXywanddUIYrPD7cMrv7W+/vDBz4z31kl
HHPUh3MUtHYWij+CBXtCClUMeSQ8WDE/4D6fTtAO/Xe3EyzT0EbMgAkPUFaLbm6R
slvIL02G3HIA3ggNXj6WHxJ9Ow1NcdXIqAa6ACPsEEykw2+88Nexz1c/O3nbgIc1
x05/uzgwCp/+Wob1l84kOHn9oNwLghGh6gzpFmXgwFSArW5VGKwnNTqwIHBijl2i
M1OMzvnuoSfL2+WaXub3gJOEYwQmWKsju5SA0KBVoortvA/DQdImpbmNikXoofzo
7npkk+3W76JR18kKMTk1Sg==
-----END CERTIFICATE-----
