Certificate:
    Data:
        Version: 3 (0x2)
        Serial Number:
            52:7b:b4:00:96:60:b4:26:85:be:01:82:b8:b8:e2:8c:72:ef:5b:90
    Signature Algorithm: sha256WithRSAEncryption
        Issuer: C=US, ST=California, L=Palo Alto, O=Apache Software Foundation, OU=Pulsar, CN=Pulsar CA/emailAddress=dev@pulsar.apache.org
        Validity
            Not Before: Feb 17 16:43:44 2021 GMT
            Not After : Feb 12 16:43:44 2041 GMT
        Subject: C=US, ST=California, L=Palo Alto, O=Apache Software Foundation, OU=Pulsar, CN=Pulsar CA/emailAddress=dev@pulsar.apache.org
        Subject Public Key Info:
            Public Key Algorithm: rsaEncryption
                Public-Key: (4096 bit)
                Modulus:
                    00:b1:3c:7d:ab:4a:54:72:37:2a:92:94:0a:66:46:
                    af:8c:ed:f4:2e:f3:87:1a:d0:c7:9d:23:35:1b:61:
                    74:69:ca:f7:f5:3e:95:9c:86:f2:21:34:f8:0b:ed:
                    45:76:22:ec:75:52:c0:67:db:2f:ba:da:25:3f:e1:
                    5b:ac:da:15:dd:a5:75:24:b2:12:f0:b0:ce:fd:ab:
                    44:06:a9:09:f6:b0:8e:8f:83:53:16:69:fa:9c:cc:
                    00:fa:dd:13:f3:da:fd:f2:bf:88:8e:c4:f8:1a:6f:
                    ab:4d:f8:32:81:80:7e:51:7a:99:2d:94:cd:f3:5d:
                    1c:58:b2:44:f1:96:12:46:56:bd:60:8f:65:32:b7:
                    d4:4b:7b:f3:23:88:2d:9b:a4:c4:c9:52:ea:9f:66:
                    c1:74:be:4b:91:c6:b9:57:ec:c1:cc:81:bb:03:d5:
                    fa:a0:46:4f:9a:a7:3e:3c:27:26:2b:97:eb:69:53:
                    04:75:50:97:d6:0d:90:b1:37:9f:64:df:70:4d:d9:
                    b3:e3:b7:cc:76:50:d9:3c:9b:4c:ac:e9:26:2e:cf:
                    ac:47:42:14:b7:60:00:0a:de:42:47:66:0c:c7:7a:
                    b9:4d:f4:fb:c2:6a:45:78:ec:b0:b4:ce:b3:1f:50:
                    25:96:13:0c:55:0a:e0:d6:76:f7:1f:e1:16:e6:41:
                    d6:72:6a:49:17:12:d9:05:8f:dc:56:b6:31:b3:b7:
                    9c:e3:d8:a9:99:8a:1d:3b:9d:d9:59:44:ee:46:88:
                    11:5f:ab:fa:38:a9:8b:d2:23:15:8b:af:1a:de:66:
                    ba:7d:51:95:37:94:91:aa:01:01:d7:83:19:4b:5d:
                    8d:f4:18:39:ef:e3:32:d0:62:c8:12:50:4e:91:c2:
                    ac:58:73:68:bb:92:20:fc:14:e5:1a:86:bd:40:4c:
                    94:e0:7d:0d:9c:08:57:ae:00:44:38:94:a3:3d:64:
                    99:43:f8:e3:12:90:14:0f:5d:63:e2:c6:07:ea:d0:
                    4c:8e:cf:e0:ae:34:be:86:4f:fc:58:e2:ea:f5:23:
                    82:37:96:02:57:1b:b4:29:ca:fd:68:a0:48:79:e8:
                    31:97:9a:5a:0e:2b:b4:b0:84:bb:57:4e:5f:4f:a7:
                    43:45:97:d7:de:05:fc:2f:6c:3e:f5:53:26:56:a3:
                    a5:da:52:69:57:8e:a0:4b:27:50:f9:ad:6e:76:a6:
                    29:cc:06:94:dd:d0:ac:c6:18:22:a0:e2:bb:ed:d5:
                    e4:97:f7:ac:23:df:75:30:41:97:07:3f:d3:12:8e:
                    c5:a4:ef:ce:40:e8:3b:57:24:19:33:1b:ee:8a:0e:
                    dd:0c:70:f2:1a:87:35:d9:71:d8:18:a7:9c:47:db:
                    93:51:c3
                Exponent: 65537 (0x10001)
        X509v3 extensions:
            X509v3 Subject Key Identifier:
                D2:B2:3D:B1:A4:7C:48:4B:36:E1:A7:DE:D8:FC:BA:92:BA:A7:C4:71
            X509v3 Authority Key Identifier:
                keyid:D2:B2:3D:B1:A4:7C:48:4B:36:E1:A7:DE:D8:FC:BA:92:BA:A7:C4:71

            X509v3 Basic Constraints: critical
                CA:TRUE
            X509v3 Key Usage: critical
                Digital Signature, Certificate Sign, CRL Sign
    Signature Algorithm: sha256WithRSAEncryption
         14:3d:7c:15:86:de:aa:5a:30:5d:d4:f2:bc:5f:10:d2:af:fe:
         91:d7:ee:f3:b8:5f:ce:e4:c9:b2:01:c3:16:da:66:8e:7e:b1:
         c1:e3:30:ff:1d:73:d0:9c:20:3d:54:32:57:ae:07:80:4a:24:
         6e:7e:32:a3:e7:23:4d:5c:31:54:8b:c1:1b:c5:bc:20:5d:43:
         62:93:e0:2e:a7:01:77:39:cf:fd:ec:4c:57:09:4f:2b:ad:ac:
         b6:c0:be:5a:a3:ea:12:ac:5a:7f:60:23:81:bb:9a:fa:5f:7a:
         67:a9:31:c3:34:af:db:ff:32:22:83:40:c2:7d:2f:39:5e:8a:
         29:44:73:5f:6e:b4:f4:a2:ae:60:1f:8e:ef:91:9a:49:bb:a6:
         90:2b:e0:44:95:24:8b:37:90:18:2d:41:32:8a:8e:07:8d:ea:
         75:62:b8:9c:ec:73:6f:12:54:23:6d:40:00:74:c7:d3:fb:b7:
         95:06:7d:cc:6d:8e:2c:d0:8b:11:06:8a:b7:43:1a:d7:e9:98:
         f4:c6:ef:ad:2a:75:08:fb:07:8f:20:36:7a:86:1a:cf:f7:d6:
         96:ad:ed:71:59:d1:81:56:18:8d:98:c2:c0:44:e5:29:7a:7c:
         c0:e3:d7:fb:b8:f5:b2:50:53:8a:cf:38:ff:99:aa:bb:28:51:
         60:e8:05:91:e1:ee:86:90:90:9b:87:60:63:38:cf:54:a5:82:
         74:0f:40:b5:d2:6a:c5:a9:98:22:59:4e:fb:a5:81:e2:7b:0e:
         3f:71:f3:24:17:1e:c5:89:fc:ae:ed:f3:69:65:02:b8:1e:98:
         bc:37:c6:25:36:f8:ca:99:60:8e:13:3b:33:ec:91:b3:eb:04:
         6d:41:97:3e:35:c0:97:ed:66:12:25:44:23:f3:2e:fa:9c:2e:
         c2:ba:dd:f3:63:d7:5b:b2:72:03:4d:3b:fb:5e:29:d6:5c:02:
         32:93:47:d1:4c:77:4a:58:c5:aa:81:ab:67:84:80:81:14:28:
         e1:db:11:16:6d:31:50:7a:47:b2:a8:2d:15:a1:c4:63:1b:ce:
         d5:e1:d7:57:dc:1a:71:e0:55:9f:6d:fb:be:e6:99:e8:89:be:
         2c:e0:19:5e:cd:02:79:52:ee:93:56:9f:dc:d7:de:31:9b:2a:
         c8:91:48:a0:c7:44:7d:72:32:27:c3:2b:d8:e8:6b:94:67:b5:
         1d:9d:99:25:23:d9:24:b5:ed:4b:f2:18:2d:88:f5:d4:36:bb:
         53:8c:a8:b1:7f:05:13:d7:8d:89:9d:55:33:90:bc:60:99:cf:
         05:ba:bd:cb:c5:61:f9:c5:1a:f7:46:9c:40:90:dd:83:aa:7a:
         1f:ab:5c:10:8d:26:27:1e
-----BEGIN CERTIFICATE-----
MIIGPzCCBCegAwIBAgIUUnu0AJZgtCaFvgGCuLjijHLvW5AwDQYJKoZIhvcNAQEL
BQAwgaYxCzAJBgNVBAYTAlVTMRMwEQYDVQQIDApDYWxpZm9ybmlhMRIwEAYDVQQH
DAlQYWxvIEFsdG8xIzAhBgNVBAoMGkFwYWNoZSBTb2Z0d2FyZSBGb3VuZGF0aW9u
MQ8wDQYDVQQLDAZQdWxzYXIxEjAQBgNVBAMMCVB1bHNhciBDQTEkMCIGCSqGSIb3
DQEJARYVZGV2QHB1bHNhci5hcGFjaGUub3JnMB4XDTIxMDIxNzE2NDM0NFoXDTQx
MDIxMjE2NDM0NFowgaYxCzAJBgNVBAYTAlVTMRMwEQYDVQQIDApDYWxpZm9ybmlh
MRIwEAYDVQQHDAlQYWxvIEFsdG8xIzAhBgNVBAoMGkFwYWNoZSBTb2Z0d2FyZSBG
b3VuZGF0aW9uMQ8wDQYDVQQLDAZQdWxzYXIxEjAQBgNVBAMMCVB1bHNhciBDQTEk
MCIGCSqGSIb3DQEJARYVZGV2QHB1bHNhci5hcGFjaGUub3JnMIICIjANBgkqhkiG
9w0BAQEFAAOCAg8AMIICCgKCAgEAsTx9q0pUcjcqkpQKZkavjO30LvOHGtDHnSM1
G2F0acr39T6VnIbyITT4C+1FdiLsdVLAZ9svutolP+FbrNoV3aV1JLIS8LDO/atE
BqkJ9rCOj4NTFmn6nMwA+t0T89r98r+IjsT4Gm+rTfgygYB+UXqZLZTN810cWLJE
8ZYSRla9YI9lMrfUS3vzI4gtm6TEyVLqn2bBdL5Lkca5V+zBzIG7A9X6oEZPmqc+
PCcmK5fraVMEdVCX1g2QsTefZN9wTdmz47fMdlDZPJtMrOkmLs+sR0IUt2AACt5C
R2YMx3q5TfT7wmpFeOywtM6zH1AllhMMVQrg1nb3H+EW5kHWcmpJFxLZBY/cVrYx
s7ec49ipmYodO53ZWUTuRogRX6v6OKmL0iMVi68a3ma6fVGVN5SRqgEB14MZS12N
9Bg57+My0GLIElBOkcKsWHNou5Ig/BTlGoa9QEyU4H0NnAhXrgBEOJSjPWSZQ/jj
EpAUD11j4sYH6tBMjs/grjS+hk/8WOLq9SOCN5YCVxu0Kcr9aKBIeegxl5paDiu0
sIS7V05fT6dDRZfX3gX8L2w+9VMmVqOl2lJpV46gSydQ+a1udqYpzAaU3dCsxhgi
oOK77dXkl/esI991MEGXBz/TEo7FpO/OQOg7VyQZMxvuig7dDHDyGoc12XHYGKec
R9uTUcMCAwEAAaNjMGEwHQYDVR0OBBYEFNKyPbGkfEhLNuGn3tj8upK6p8RxMB8G
A1UdIwQYMBaAFNKyPbGkfEhLNuGn3tj8upK6p8RxMA8GA1UdEwEB/wQFMAMBAf8w
DgYDVR0PAQH/BAQDAgGGMA0GCSqGSIb3DQEBCwUAA4ICAQAUPXwVht6qWjBd1PK8
XxDSr/6R1+7zuF/O5MmyAcMW2maOfrHB4zD/HXPQnCA9VDJXrgeASiRufjKj5yNN
XDFUi8EbxbwgXUNik+AupwF3Oc/97ExXCU8rray2wL5ao+oSrFp/YCOBu5r6X3pn
qTHDNK/b/zIig0DCfS85XoopRHNfbrT0oq5gH47vkZpJu6aQK+BElSSLN5AYLUEy
io4Hjep1Yric7HNvElQjbUAAdMfT+7eVBn3MbY4s0IsRBoq3QxrX6Zj0xu+tKnUI
+wePIDZ6hhrP99aWre1xWdGBVhiNmMLAROUpenzA49f7uPWyUFOKzzj/maq7KFFg
6AWR4e6GkJCbh2BjOM9UpYJ0D0C10mrFqZgiWU77pYHiew4/cfMkFx7Fifyu7fNp
ZQK4Hpi8N8YlNvjKmWCOEzsz7JGz6wRtQZc+NcCX7WYSJUQj8y76nC7Cut3zY9db
snIDTTv7XinWXAIyk0fRTHdKWMWqgatnhICBFCjh2xEWbTFQekeyqC0VocRjG87V
4ddX3Bpx4FWfbfu+5pnoib4s4BlezQJ5Uu6TVp/c194xmyrIkUigx0R9cjInwyvY
6GuUZ7UdnZklI9kkte1L8hgtiPXUNrtTjKixfwUT142JnVUzkLxgmc8Fur3LxWH5
xRr3RpxAkN2Dqnofq1wQjSYnHg==
-----END CERTIFICATE-----
