Certificate:
    Data:
        Version: 1 (0x0)
        Serial Number: 4097 (0x1001)
    Signature Algorithm: sha256WithRSAEncryption
        Issuer: C=US, ST=California, L=Palo Alto, O=Apache Software Foundation, OU=Pulsar, CN=Pulsar CA/emailAddress=dev@pulsar.apache.org
        Validity
            Not Before: Feb 17 16:56:55 2021 GMT
            Not After : Feb 12 16:56:55 2041 GMT
        Subject: C=US, ST=California, O=Apache Software Foundation, OU=Pulsar, CN=admin/emailAddress=dev@pulsar.apache.org
        Subject Public Key Info:
            Public Key Algorithm: rsaEncryption
                Public-Key: (2048 bit)
                Modulus:
                    00:ab:61:f5:12:b1:e1:ae:19:01:3e:59:4a:c6:ca:
                    00:0c:96:e8:76:3a:83:20:d9:af:3a:e1:11:20:12:
                    e0:e4:d0:70:8f:4b:7b:af:e1:89:ef:9b:c5:a9:c2:
                    ed:ae:24:8d:bb:42:6e:ec:59:11:3f:f5:63:59:61:
                    18:9f:70:b6:76:88:e2:ca:79:15:cc:fb:9c:5e:5c:
                    bb:a1:d7:f0:d8:11:d4:17:34:1e:81:7e:0b:0e:05:
                    be:5d:fa:d6:46:af:e1:95:d8:a0:5d:c5:2f:d9:a9:
                    8f:69:64:49:95:f7:42:16:6a:84:2b:2e:af:91:73:
                    3d:b6:d4:44:56:9a:61:43:49:15:22:ae:90:5d:04:
                    29:90:4e:b2:41:34:73:3e:a2:48:05:1c:bc:8e:1b:
                    0b:c1:d5:df:56:32:40:e9:91:a2:7b:de:31:2b:67:
                    f1:8e:d6:c5:c0:87:57:70:29:f9:af:db:57:a0:2e:
                    8c:30:0a:a7:47:39:33:4c:d7:2d:32:aa:48:29:bd:
                    c4:48:c5:58:52:07:c4:99:b1:cc:66:da:ac:28:4d:
                    c1:bc:1f:44:3f:a3:63:61:bd:ff:48:61:76:04:b2:
                    7d:1c:6e:9c:ee:82:bb:f7:60:1c:7a:a0:98:be:2d:
                    70:43:2f:64:bf:d2:0f:20:25:f7:c7:7d:70:05:b8:
                    2e:bf
                Exponent: 65537 (0x10001)
    Signature Algorithm: sha256WithRSAEncryption
         1c:31:b8:0f:a1:03:28:a0:da:31:ec:34:ce:e0:fd:01:99:9d:
         9b:ad:f8:03:5d:20:85:18:de:ca:b5:ea:61:c9:3b:65:42:9c:
         e5:21:73:d2:06:41:4b:a9:3a:fb:7f:ff:45:f3:5a:4a:ab:5a:
         86:cd:57:6a:5f:13:c0:ae:7e:ad:5c:6e:c3:c4:e7:b7:d3:14:
         bf:86:fe:f2:d1:70:0e:fc:98:50:a7:fe:53:62:5a:2d:f5:63:
         2c:ee:4a:7c:dd:32:3e:d1:52:3a:1f:15:38:4b:2a:4a:ee:27:
         a9:d8:92:a8:33:92:83:c9:3a:09:5a:01:66:0e:68:da:8f:82:
         c0:18:cc:78:ea:c5:db:09:7c:2f:61:c3:51:f8:58:7a:27:d7:
         92:c0:ff:f8:29:d7:a0:e9:54:17:8d:48:a8:ff:5e:92:ee:81:
         6c:37:90:1c:93:28:8c:d2:f5:b1:20:96:d3:1d:0f:c0:7f:db:
         0c:6d:65:7f:3a:55:e5:c9:9a:ad:09:91:a5:57:cb:fc:bf:df:
         69:bd:6b:87:94:5b:d0:cf:3b:8b:48:41:3d:56:b6:1d:3f:e7:
         f6:b6:58:f7:54:2a:dd:da:60:68:db:9b:70:04:8b:19:c3:44:
         bf:1d:b4:28:b9:f8:ea:ad:d3:1a:6e:64:72:b1:61:6a:f3:e1:
         d4:68:56:7b:0e:ad:4c:53:1e:d2:2e:1c:bc:b7:82:59:af:65:
         d2:fd:ef:89:7c:34:8f:51:a1:4e:9d:7e:dc:c7:97:68:ea:aa:
         e5:67:ed:be:dc:38:74:0e:c3:6f:fd:08:62:54:d8:1f:15:d1:
         25:fc:21:f6:8c:f9:2f:65:5e:07:b9:e9:56:ba:48:14:5c:0d:
         18:ba:f8:83:54:5b:b6:27:0c:36:2c:20:29:9c:c2:68:c5:3a:
         0f:a5:d6:5f:7c:aa:f9:a6:2a:2b:69:c5:b1:39:e7:1c:02:31:
         5b:f5:82:de:c9:4e:8d:33:dc:94:02:44:0a:44:95:75:7b:a1:
         e7:ee:92:fc:35:93:73:8c:22:c1:32:ea:39:17:ca:d0:87:fc:
         4d:8e:04:f8:59:66:d3:14:3f:59:ad:76:14:20:16:7b:77:4f:
         94:58:f8:85:5c:ba:b3:69:ed:7f:75:54:9a:1a:88:21:5d:04:
         57:87:85:e2:d4:0e:1b:61:7f:5d:36:dc:72:a1:9d:0b:c8:ce:
         19:69:49:fa:1b:bb:3f:3d:1b:4d:81:42:95:4e:d8:0b:04:d1:
         08:6d:15:b3:ae:52:41:12:ff:e1:90:c4:7d:52:88:55:8b:87:
         83:06:48:8b:fc:3a:a7:47:0e:6c:a8:4c:9e:b0:aa:da:50:f5:
         97:97:98:3e:9d:18:ef:43
-----BEGIN CERTIFICATE-----
MIIEqzCCApMCAhABMA0GCSqGSIb3DQEBCwUAMIGmMQswCQYDVQQGEwJVUzETMBEG
A1UECAwKQ2FsaWZvcm5pYTESMBAGA1UEBwwJUGFsbyBBbHRvMSMwIQYDVQQKDBpB
cGFjaGUgU29mdHdhcmUgRm91bmRhdGlvbjEPMA0GA1UECwwGUHVsc2FyMRIwEAYD
VQQDDAlQdWxzYXIgQ0ExJDAiBgkqhkiG9w0BCQEWFWRldkBwdWxzYXIuYXBhY2hl
Lm9yZzAeFw0yMTAyMTcxNjU2NTVaFw00MTAyMTIxNjU2NTVaMIGOMQswCQYDVQQG
EwJVUzETMBEGA1UECAwKQ2FsaWZvcm5pYTEjMCEGA1UECgwaQXBhY2hlIFNvZnR3
YXJlIEZvdW5kYXRpb24xDzANBgNVBAsMBlB1bHNhcjEOMAwGA1UEAwwFYWRtaW4x
JDAiBgkqhkiG9w0BCQEWFWRldkBwdWxzYXIuYXBhY2hlLm9yZzCCASIwDQYJKoZI
hvcNAQEBBQADggEPADCCAQoCggEBAKth9RKx4a4ZAT5ZSsbKAAyW6HY6gyDZrzrh
ESAS4OTQcI9Le6/hie+bxanC7a4kjbtCbuxZET/1Y1lhGJ9wtnaI4sp5Fcz7nF5c
u6HX8NgR1Bc0HoF+Cw4Fvl361kav4ZXYoF3FL9mpj2lkSZX3QhZqhCsur5FzPbbU
RFaaYUNJFSKukF0EKZBOskE0cz6iSAUcvI4bC8HV31YyQOmRonveMStn8Y7WxcCH
V3Ap+a/bV6AujDAKp0c5M0zXLTKqSCm9xEjFWFIHxJmxzGbarChNwbwfRD+jY2G9
/0hhdgSyfRxunO6Cu/dgHHqgmL4tcEMvZL/SDyAl98d9cAW4Lr8CAwEAATANBgkq
hkiG9w0BAQsFAAOCAgEAHDG4D6EDKKDaMew0zuD9AZmdm634A10ghRjeyrXqYck7
ZUKc5SFz0gZBS6k6+3//RfNaSqtahs1Xal8TwK5+rVxuw8Tnt9MUv4b+8tFwDvyY
UKf+U2JaLfVjLO5KfN0yPtFSOh8VOEsqSu4nqdiSqDOSg8k6CVoBZg5o2o+CwBjM
eOrF2wl8L2HDUfhYeifXksD/+CnXoOlUF41IqP9eku6BbDeQHJMojNL1sSCW0x0P
wH/bDG1lfzpV5cmarQmRpVfL/L/fab1rh5Rb0M87i0hBPVa2HT/n9rZY91Qq3dpg
aNubcASLGcNEvx20KLn46q3TGm5kcrFhavPh1GhWew6tTFMe0i4cvLeCWa9l0v3v
iXw0j1GhTp1+3MeXaOqq5Wftvtw4dA7Db/0IYlTYHxXRJfwh9oz5L2VeB7npVrpI
FFwNGLr4g1RbticMNiwgKZzCaMU6D6XWX3yq+aYqK2nFsTnnHAIxW/WC3slOjTPc
lAJECkSVdXuh5+6S/DWTc4wiwTLqORfK0If8TY4E+Flm0xQ/Wa12FCAWe3dPlFj4
hVy6s2ntf3VUmhqIIV0EV4eF4tQOG2F/XTbccqGdC8jOGWlJ+hu7Pz0bTYFClU7Y
CwTRCG0Vs65SQRL/4ZDEfVKIVYuHgwZIi/w6p0cObKhMnrCq2lD1l5eYPp0Y70M=
-----END CERTIFICATE-----
