Certificate:
    Data:
        Version: 3 (0x2)
        Serial Number: 4103 (0x1007)
    Signature Algorithm: sha256WithRSAEncryption
        Issuer: CN=foobar
        Validity
            Not Before: May 10 15:50:18 2023 GMT
            Not After : Feb 22 15:50:18 2297 GMT
        Subject: CN=broker-localhost-SAN
        Subject Public Key Info:
            Public Key Algorithm: rsaEncryption
                Public-Key: (2048 bit)
                Modulus:
                    00:de:d1:da:bb:91:b3:16:c4:b2:e8:89:30:9e:c1:
                    5e:0b:cf:db:c4:c3:d9:b1:af:40:a5:0b:38:36:1b:
                    14:fe:0f:22:9c:e6:59:6a:15:5b:db:f6:f7:f3:a5:
                    02:29:94:7a:d2:0c:67:ad:aa:63:62:7e:fc:58:11:
                    29:48:b8:3c:91:b2:73:7e:12:6b:f2:ea:36:77:0f:
                    15:9b:46:95:ce:73:15:8d:c8:d9:97:57:03:90:33:
                    2d:7d:f3:ee:e5:01:6d:d8:c6:da:ab:07:b9:dd:1c:
                    e0:4b:ce:6a:de:a8:d2:e3:c1:52:6d:83:3a:0a:f0:
                    ed:cf:f7:56:6a:87:0e:73:e3:12:82:2b:65:ab:d8:
                    a9:44:5b:4a:2f:a5:92:94:32:f1:a1:e4:af:18:0f:
                    0f:18:60:cd:f7:d0:9d:03:9f:d7:e9:a8:60:54:bb:
                    3b:9a:05:db:fd:38:04:3c:b4:23:41:16:6c:7c:3b:
                    d9:b6:e0:2f:bd:cb:62:55:1b:e8:d0:8f:43:76:ef:
                    55:86:cf:25:c3:bc:ae:e3:46:50:89:f7:71:ad:06:
                    5e:28:e6:f6:f0:76:27:ea:7e:1b:67:53:39:26:20:
                    19:18:82:b1:11:5f:ea:91:c2:e3:d3:f6:5a:c7:fd:
                    61:a2:92:de:7d:7c:da:6d:e8:bf:39:52:10:31:60:
                    4b:e1
                Exponent: 65537 (0x10001)
        X509v3 extensions:
            X509v3 Basic Constraints: 
                CA:FALSE
            Netscape Cert Type: 
                SSL Server
            Netscape Comment: 
                OpenSSL Generated Server Certificate
            X509v3 Subject Key Identifier: 
                17:07:3B:AA:85:83:B5:04:83:EC:B2:6C:1E:3A:F0:F5:59:AA:61:28
            X509v3 Subject Alternative Name: 
                DNS:localhost, DNS:unresolvable-broker-address, IP Address:127.0.0.1
            X509v3 Authority Key Identifier: 
                keyid:57:0B:E9:CB:23:E8:BF:47:3E:50:7A:3F:45:7E:A1:18:43:9D:15:27
                DirName:/CN=foobar
                serial:D7:E2:87:4F:A0:79:E2:0C

            X509v3 Key Usage: critical
                Digital Signature, Key Encipherment
            X509v3 Extended Key Usage: 
                TLS Web Server Authentication
    Signature Algorithm: sha256WithRSAEncryption
         e4:27:61:e2:0f:b6:a0:ca:9f:ce:e3:53:0b:44:ab:86:a1:e2:
         4d:88:e1:7d:2e:b0:aa:32:96:2b:3d:da:60:70:6a:c3:62:c5:
         76:f2:8f:0d:16:31:f2:ad:e5:2f:43:f3:cb:e4:fa:95:6c:20:
         81:33:1a:c7:5a:55:57:c9:ab:ca:66:45:30:58:00:db:e8:51:
         c9:2c:a9:72:c1:18:f5:01:87:9f:73:20:85:6c:e5:6c:3f:c9:
         67:b4:f0:20:e5:ed:e2:4a:08:0b:af:68:43:e5:a9:c7:e1:39:
         e8:b5:49:cb:47:4a:6d:e5:16:ae:88:92:13:85:8e:42:1e:0a:
         eb:59:ed:a7:c1:9b:bc:4b:7b:99:f8:1d:f0:d7:1d:90:c9:cf:
         86:6a:d3:10:d0:36:e4:f5:b9:33:79:c7:a2:68:31:f7:bb:8d:
         1e:d6:33:79:bd:e7:0e:4f:4d:e9:2e:15:04:4f:6b:4b:2e:93:
         28:72:d1:0e:aa:ee:e6:ef:68:be:58:2b:cc:56:01:27:16:f9:
         34:8e:66:86:27:0a:b0:fb:32:56:a9:8a:d9:6f:b1:86:bd:ba:
         fd:50:6c:d5:b2:54:e7:4e:c6:2d:19:88:a9:89:2c:ef:be:08:
         0d:2b:49:91:0b:09:42:64:06:a3:9d:d7:94:ed:e8:74:74:48:
         43:57:41:6f:e5:06:98:46:1d:c5:60:9c:69:f8:fb:fe:a6:01:
         4a:35:be:21:36:c2:a3:44:c8:c4:2c:21:09:f4:28:9a:ad:a0:
         97:1e:00:29:cc:0f:26:fa:59:21:25:c0:9e:fa:22:53:67:6d:
         ab:a6:56:08:fd:37:1d:69:fe:ef:6f:29:89:1a:66:7b:c7:ff:
         b1:34:f1:d6:be:21:81:e3:bc:4f:13:02:a7:4b:9d:13:05:46:
         40:88:4a:aa:db:fb:64:f8:6b:fb:5d:a0:b1:0c:1a:b8:4c:ab:
         6f:69:fe:0b:55:4e:b3:38:1f:91:0b:71:77:1e:11:39:54:9a:
         62:51:ea:6d:a8:5e:0d:4a:91:fb:d8:be:5d:93:e8:43:f3:4a:
         11:fb:31:cf:14:1a:1c:8d:31:1b:99:31:e0:2b:81:01:91:6f:
         da:ba:cb:1f:51:21:55:29:3f:4c:71:e3:d0:29:41:de:a0:00:
         da:07:ed:5e:c9:af:32:61:6d:55:f8:f5:2d:46:03:34:33:fb:
         2e:1e:aa:7c:fe:d2:30:4d:40:cc:ed:76:ec:f6:bd:ed:35:c8:
         d8:b3:46:56:aa:2c:53:84:56:45:b0:a3:f6:35:66:93:da:8c:
         17:39:c1:29:7c:99:c5:0b:73:c1:f9:16:d0:57:fc:57:59:06:
         af:39:9f:a9:51:35:0b:c7
-----BEGIN CERTIFICATE-----
MIIExzCCAq+gAwIBAgICEAcwDQYJKoZIhvcNAQELBQAwETEPMA0GA1UEAwwGZm9v
YmFyMCAXDTIzMDUxMDE1NTAxOFoYDzIyOTcwMjIyMTU1MDE4WjAfMR0wGwYDVQQD
DBRicm9rZXItbG9jYWxob3N0LVNBTjCCASIwDQYJKoZIhvcNAQEBBQADggEPADCC
AQoCggEBAN7R2ruRsxbEsuiJMJ7BXgvP28TD2bGvQKULODYbFP4PIpzmWWoVW9v2
9/OlAimUetIMZ62qY2J+/FgRKUi4PJGyc34Sa/LqNncPFZtGlc5zFY3I2ZdXA5Az
LX3z7uUBbdjG2qsHud0c4EvOat6o0uPBUm2DOgrw7c/3VmqHDnPjEoIrZavYqURb
Si+lkpQy8aHkrxgPDxhgzffQnQOf1+moYFS7O5oF2/04BDy0I0EWbHw72bbgL73L
YlUb6NCPQ3bvVYbPJcO8ruNGUIn3ca0GXijm9vB2J+p+G2dTOSYgGRiCsRFf6pHC
49P2Wsf9YaKS3n182m3ovzlSEDFgS+ECAwEAAaOCARcwggETMAkGA1UdEwQCMAAw
EQYJYIZIAYb4QgEBBAQDAgZAMDMGCWCGSAGG+EIBDQQmFiRPcGVuU1NMIEdlbmVy
YXRlZCBTZXJ2ZXIgQ2VydGlmaWNhdGUwHQYDVR0OBBYEFBcHO6qFg7UEg+yybB46
8PVZqmEoMDcGA1UdEQQwMC6CCWxvY2FsaG9zdIIbdW5yZXNvbHZhYmxlLWJyb2tl
ci1hZGRyZXNzhwR/AAABMEEGA1UdIwQ6MDiAFFcL6csj6L9HPlB6P0V+oRhDnRUn
oRWkEzARMQ8wDQYDVQQDDAZmb29iYXKCCQDX4odPoHniDDAOBgNVHQ8BAf8EBAMC
BaAwEwYDVR0lBAwwCgYIKwYBBQUHAwEwDQYJKoZIhvcNAQELBQADggIBAOQnYeIP
tqDKn87jUwtEq4ah4k2I4X0usKoylis92mBwasNixXbyjw0WMfKt5S9D88vk+pVs
IIEzGsdaVVfJq8pmRTBYANvoUcksqXLBGPUBh59zIIVs5Ww/yWe08CDl7eJKCAuv
aEPlqcfhOei1SctHSm3lFq6IkhOFjkIeCutZ7afBm7xLe5n4HfDXHZDJz4Zq0xDQ
NuT1uTN5x6JoMfe7jR7WM3m95w5PTekuFQRPa0sukyhy0Q6q7ubvaL5YK8xWAScW
+TSOZoYnCrD7MlapitlvsYa9uv1QbNWyVOdOxi0ZiKmJLO++CA0rSZELCUJkBqOd
15Tt6HR0SENXQW/lBphGHcVgnGn4+/6mAUo1viE2wqNEyMQsIQn0KJqtoJceACnM
Dyb6WSElwJ76IlNnbaumVgj9Nx1p/u9vKYkaZnvH/7E08da+IYHjvE8TAqdLnRMF
RkCISqrb+2T4a/tdoLEMGrhMq29p/gtVTrM4H5ELcXceETlUmmJR6m2oXg1KkfvY
vl2T6EPzShH7Mc8UGhyNMRuZMeArgQGRb9q6yx9RIVUpP0xx49ApQd6gANoH7V7J
rzJhbVX49S1GAzQz+y4eqnz+0jBNQMztduz2ve01yNizRlaqLFOEVkWwo/Y1ZpPa
jBc5wSl8mcULc8H5FtBX/FdZBq85n6lRNQvH
-----END CERTIFICATE-----
