Certificate:
    Data:
        Version: 3 (0x2)
        Serial Number: 4103 (0x1007)
    Signature Algorithm: sha256WithRSAEncryption
        Issuer: CN=foobar
        Validity
            Not Before: May 10 03:10:29 2023 GMT
            Not After : Feb 22 03:10:29 2297 GMT
        Subject: CN=broker-localhost-SAN
        Subject Public Key Info:
            Public Key Algorithm: rsaEncryption
                Public-Key: (2048 bit)
                Modulus:
                    00:c9:86:61:49:1b:ba:ed:d8:57:25:9d:a9:a6:2d:
                    08:f3:fd:0f:63:39:9b:5a:85:6a:e5:9c:11:e9:2e:
                    a6:44:c2:eb:ce:bd:fd:14:c3:98:91:c9:0d:d4:8a:
                    e6:6d:6c:e8:31:0c:71:bb:06:85:eb:fe:c3:bf:d0:
                    e6:5c:2a:9b:98:fa:93:59:91:65:90:66:e9:7f:a9:
                    19:b7:52:6a:60:84:bc:e6:6d:9c:ac:26:81:41:f3:
                    ba:87:18:81:f8:11:9a:e0:59:a3:a6:31:05:be:02:
                    f0:c3:de:b4:ae:bb:f0:87:4e:7c:10:51:07:66:62:
                    46:23:b5:1a:dc:96:6d:24:72:a0:05:ae:92:5a:db:
                    9d:dd:f5:bb:8e:b9:de:b2:65:e3:18:de:0c:b6:44:
                    d6:a0:ae:e3:ad:af:38:0b:bd:98:85:46:9a:1b:f5:
                    32:c3:b9:fb:af:d1:67:8c:8f:4d:36:82:4c:c5:25:
                    74:fe:77:5d:1e:f4:7b:af:36:c9:4c:1c:c8:4d:ef:
                    5c:e7:4b:9f:96:ab:39:f3:4b:8a:8d:3e:83:2b:da:
                    02:3b:82:08:a9:80:00:bd:54:73:80:65:62:1b:a7:
                    3c:5c:51:f5:7a:6b:28:ef:dd:b9:a5:84:11:31:f8:
                    42:fb:6c:ed:fa:5f:a2:cd:91:50:f7:41:60:d0:65:
                    f2:9d
                Exponent: 65537 (0x10001)
        X509v3 extensions:
            X509v3 Basic Constraints: 
                CA:FALSE
            Netscape Cert Type: 
                SSL Server
            Netscape Comment: 
                OpenSSL Generated Server Certificate
            X509v3 Subject Key Identifier: 
                9F:0A:2C:95:45:82:BA:2A:2F:8F:54:9B:00:B2:99:04:CF:DA:B6:82
            X509v3 Subject Alternative Name: 
                DNS:localhost, IP Address:127.0.0.1
            X509v3 Authority Key Identifier: 
                keyid:57:0B:E9:CB:23:E8:BF:47:3E:50:7A:3F:45:7E:A1:18:43:9D:15:27
                DirName:/CN=foobar
                serial:D7:E2:87:4F:A0:79:E2:0C

            X509v3 Key Usage: critical
                Digital Signature, Key Encipherment
            X509v3 Extended Key Usage: 
                TLS Web Server Authentication
    Signature Algorithm: sha256WithRSAEncryption
         0e:07:18:d6:35:5f:02:df:52:77:cd:c8:3c:01:82:a3:ef:56:
         48:61:bf:cc:c2:f8:e1:64:2d:7e:0a:8f:d4:6b:a5:2b:78:51:
         8d:10:47:b3:6a:8b:0c:6e:3a:20:5e:30:2a:c3:aa:ce:cf:56:
         8d:50:4d:5c:e2:6d:24:97:66:14:8d:3f:e8:ca:2a:62:37:dc:
         98:d2:ca:a8:c8:f6:3d:05:52:b2:7c:74:af:4a:c9:58:0e:6c:
         99:6d:18:d6:e7:82:61:a0:f7:cd:9b:c9:66:52:15:15:84:4c:
         e1:22:ef:07:53:b8:14:cb:2c:48:fb:82:4e:04:5d:c3:cd:76:
         d4:55:73:bb:c1:9d:d5:4b:1d:61:c6:fd:f7:8a:a4:ad:98:36:
         32:d3:9d:3e:64:97:d2:7a:1b:7f:88:9d:62:d3:57:88:6b:20:
         20:f0:80:e7:62:96:67:57:94:e1:73:a5:9c:68:7d:35:a6:10:
         46:52:a7:63:9b:7b:2d:36:83:72:1b:31:27:29:cb:53:9d:41:
         13:07:70:36:01:6f:9a:ad:d7:b8:85:9c:8b:02:80:90:08:64:
         51:78:95:ef:b0:74:f0:53:47:ce:66:55:77:8c:1f:d8:1f:aa:
         17:3f:75:3c:6d:67:25:8c:3d:5e:84:12:4e:58:fa:c5:52:7f:
         0f:74:57:e4:84:4a:8c:fd:15:49:b2:fd:36:f1:50:94:20:d1:
         7e:86:1c:b3:23:b2:43:86:90:c8:20:98:84:14:60:cd:f3:6e:
         77:45:e8:02:d5:92:7a:c0:b6:4b:e3:df:ba:8b:ae:f0:21:b9:
         04:f0:1d:c5:d2:87:82:f4:9b:c4:52:4a:65:e0:89:b1:65:2c:
         c9:ef:86:a2:c5:b2:32:d8:cb:b3:c9:87:c9:1c:88:ab:ed:48:
         b9:22:00:6d:a1:d2:99:2d:f8:2d:c3:84:60:4b:1f:75:8d:18:
         14:4b:62:df:8c:cb:cc:d9:f1:f1:6a:da:94:0a:06:ba:eb:94:
         43:34:3e:a2:33:fa:fe:a6:19:73:3b:78:2b:0a:32:ab:87:71:
         bf:9b:e1:36:1b:7b:23:90:91:73:88:2f:32:47:5e:af:76:59:
         a6:80:c6:31:b1:42:73:c9:14:7e:4a:81:c5:3f:0d:ae:fb:5d:
         84:db:dc:77:ea:37:3a:75:dd:18:c9:72:b6:0e:e4:56:d5:ba:
         af:47:01:f9:cc:88:ff:21:3a:25:f8:81:f4:2a:e6:00:62:ad:
         58:fc:d3:62:9e:10:37:32:ca:f5:a9:f2:ff:26:cb:d7:19:62:
         df:94:9f:17:de:4d:e0:3f:97:fe:79:75:3b:32:69:54:84:60:
         d7:82:17:0c:46:7d:39:83
-----BEGIN CERTIFICATE-----
MIIEqDCCApCgAwIBAgICEAcwDQYJKoZIhvcNAQELBQAwETEPMA0GA1UEAwwGZm9v
YmFyMCAXDTIzMDUxMDAzMTAyOVoYDzIyOTcwMjIyMDMxMDI5WjAfMR0wGwYDVQQD
DBRicm9rZXItbG9jYWxob3N0LVNBTjCCASIwDQYJKoZIhvcNAQEBBQADggEPADCC
AQoCggEBAMmGYUkbuu3YVyWdqaYtCPP9D2M5m1qFauWcEekupkTC6869/RTDmJHJ
DdSK5m1s6DEMcbsGhev+w7/Q5lwqm5j6k1mRZZBm6X+pGbdSamCEvOZtnKwmgUHz
uocYgfgRmuBZo6YxBb4C8MPetK678IdOfBBRB2ZiRiO1GtyWbSRyoAWuklrbnd31
u4653rJl4xjeDLZE1qCu462vOAu9mIVGmhv1MsO5+6/RZ4yPTTaCTMUldP53XR70
e682yUwcyE3vXOdLn5arOfNLio0+gyvaAjuCCKmAAL1Uc4BlYhunPFxR9XprKO/d
uaWEETH4Qvts7fpfos2RUPdBYNBl8p0CAwEAAaOB+TCB9jAJBgNVHRMEAjAAMBEG
CWCGSAGG+EIBAQQEAwIGQDAzBglghkgBhvhCAQ0EJhYkT3BlblNTTCBHZW5lcmF0
ZWQgU2VydmVyIENlcnRpZmljYXRlMB0GA1UdDgQWBBSfCiyVRYK6Ki+PVJsAspkE
z9q2gjAaBgNVHREEEzARgglsb2NhbGhvc3SHBH8AAAEwQQYDVR0jBDowOIAUVwvp
yyPov0c+UHo/RX6hGEOdFSehFaQTMBExDzANBgNVBAMMBmZvb2JhcoIJANfih0+g
eeIMMA4GA1UdDwEB/wQEAwIFoDATBgNVHSUEDDAKBggrBgEFBQcDATANBgkqhkiG
9w0BAQsFAAOCAgEADgcY1jVfAt9Sd83IPAGCo+9WSGG/zML44WQtfgqP1GulK3hR
jRBHs2qLDG46IF4wKsOqzs9WjVBNXOJtJJdmFI0/6MoqYjfcmNLKqMj2PQVSsnx0
r0rJWA5smW0Y1ueCYaD3zZvJZlIVFYRM4SLvB1O4FMssSPuCTgRdw8121FVzu8Gd
1UsdYcb994qkrZg2MtOdPmSX0nobf4idYtNXiGsgIPCA52KWZ1eU4XOlnGh9NaYQ
RlKnY5t7LTaDchsxJynLU51BEwdwNgFvmq3XuIWciwKAkAhkUXiV77B08FNHzmZV
d4wf2B+qFz91PG1nJYw9XoQSTlj6xVJ/D3RX5IRKjP0VSbL9NvFQlCDRfoYcsyOy
Q4aQyCCYhBRgzfNud0XoAtWSesC2S+Pfuouu8CG5BPAdxdKHgvSbxFJKZeCJsWUs
ye+GosWyMtjLs8mHyRyIq+1IuSIAbaHSmS34LcOEYEsfdY0YFEti34zLzNnx8Wra
lAoGuuuUQzQ+ojP6/qYZczt4Kwoyq4dxv5vhNht7I5CRc4gvMkder3ZZpoDGMbFC
c8kUfkqBxT8NrvtdhNvcd+o3OnXdGMlytg7kVtW6r0cB+cyI/yE6JfiB9CrmAGKt
WPzTYp4QNzLK9any/ybL1xli35SfF95N4D+X/nl1OzJpVIRg14IXDEZ9OYM=
-----END CERTIFICATE-----
