Certificate:
    Data:
        Version: 3 (0x2)
        Serial Number: 4104 (0x1008)
    Signature Algorithm: sha256WithRSAEncryption
        Issuer: CN=foobar
        Validity
            Not Before: May 10 15:50:19 2023 GMT
            Not After : Feb 22 15:50:19 2297 GMT
        Subject: CN=proxy-localhost-SAN
        Subject Public Key Info:
            Public Key Algorithm: rsaEncryption
                Public-Key: (2048 bit)
                Modulus:
                    00:cc:15:c9:85:06:43:47:bd:46:9f:4f:03:1a:e0:
                    6e:94:13:4e:b0:30:ea:88:ca:3a:e4:39:92:12:c1:
                    77:51:8c:0d:3c:b9:26:5c:2f:dc:fc:b1:5a:bf:0e:
                    47:ff:09:60:30:79:8e:55:26:fe:d0:a1:ed:9f:6d:
                    8a:6a:06:85:f0:d0:dc:94:a6:54:a1:a6:c9:3e:57:
                    d5:69:7d:e9:25:c1:ef:6b:77:e1:62:76:d8:e4:54:
                    91:40:bc:0b:11:74:b8:30:bb:d4:02:77:d6:bd:d2:
                    d0:e7:ad:df:7d:98:96:74:42:ad:53:b3:88:c8:dc:
                    1d:db:51:63:84:ee:7e:85:73:14:5e:d4:c8:f0:01:
                    5f:67:52:ed:94:87:f7:d6:aa:28:8b:2c:84:98:8c:
                    b9:91:b5:38:99:80:5d:b3:d4:db:95:96:09:ef:1d:
                    a1:6f:86:c8:17:86:f7:0a:1e:72:3b:50:8c:53:e5:
                    ce:d4:8c:cf:cc:81:3d:46:55:ff:65:25:0b:36:31:
                    31:a6:22:27:47:96:59:38:c1:cd:66:a6:9a:83:98:
                    dc:b8:2e:10:8d:ba:45:ae:aa:20:6e:e3:0b:bd:ec:
                    e6:63:b5:40:55:d4:fe:97:b1:f1:8d:9a:c0:a2:46:
                    8e:a3:ed:a0:1b:ed:40:b0:00:a5:28:f9:da:03:bd:
                    c1:a9
                Exponent: 65537 (0x10001)
        X509v3 extensions:
            X509v3 Basic Constraints: 
                CA:FALSE
            Netscape Cert Type: 
                SSL Server
            Netscape Comment: 
                OpenSSL Generated Server Certificate
            X509v3 Subject Key Identifier: 
                C5:33:73:67:03:B7:51:08:F4:BD:D3:CD:4F:DC:CF:83:11:53:AD:39
            X509v3 Subject Alternative Name: 
                DNS:localhost, IP Address:127.0.0.1
            X509v3 Authority Key Identifier: 
                keyid:57:0B:E9:CB:23:E8:BF:47:3E:50:7A:3F:45:7E:A1:18:43:9D:15:27
                DirName:/CN=foobar
                serial:D7:E2:87:4F:A0:79:E2:0C

            X509v3 Key Usage: critical
                Digital Signature, Key Encipherment
            X509v3 Extended Key Usage: 
                TLS Web Server Authentication
    Signature Algorithm: sha256WithRSAEncryption
         43:ef:67:29:9a:0c:53:97:7c:fc:72:73:6c:8d:48:78:4e:ec:
         e3:14:9d:d9:1e:83:4c:d6:f0:56:e9:c4:d8:de:f5:54:fb:a5:
         3b:ff:59:23:75:26:74:f0:86:90:d0:4d:41:25:03:87:e0:60:
         a4:9b:33:3d:bd:1c:79:b8:db:86:1c:38:09:26:0d:80:3e:f9:
         1e:28:11:0d:3d:6b:1e:1a:7a:9a:fa:fc:18:22:7f:fd:46:55:
         c2:2f:56:5c:5c:8a:45:f2:74:7a:e4:6c:d0:e0:ea:ec:74:b7:
         0d:a8:f3:ca:18:cf:a4:be:a0:e0:4a:32:ca:15:7e:5d:06:56:
         b7:71:7c:e0:dc:19:fa:be:3e:94:84:20:be:96:34:61:0b:f0:
         d1:d6:31:49:0b:b0:20:b8:f9:5c:49:08:13:9b:45:c0:6f:58:
         16:81:0b:0c:f8:66:38:58:83:d4:b0:bc:14:35:8d:e2:1d:d5:
         2d:ea:02:ae:42:e1:88:22:5a:b0:cf:e5:31:b1:cb:d3:e9:d2:
         5e:88:55:bd:62:ac:85:aa:4e:fc:18:6b:65:f9:9e:fc:93:27:
         0c:c6:29:aa:f0:64:6e:72:dc:d9:95:ae:38:ae:64:9e:c6:44:
         8a:0b:0f:0e:d4:69:7e:79:e0:46:d0:75:96:2a:1a:60:af:30:
         23:dc:d2:67:0d:08:2a:9d:58:29:09:1e:c8:08:d5:3a:88:2d:
         1a:dc:47:dc:5d:bd:0d:5c:54:f1:5d:5a:6d:0d:de:bc:18:67:
         2d:dd:1b:fe:8b:0e:03:19:b0:0f:f2:59:69:d0:7a:4f:a1:33:
         74:f7:22:ef:ff:90:e1:4b:8e:ac:13:00:6f:00:9b:55:83:d2:
         96:db:a8:81:c9:a9:8d:c6:a6:21:3d:14:d3:43:71:28:c6:ea:
         6d:2d:91:b9:58:bf:ec:18:75:c4:8c:10:43:88:60:08:c0:bb:
         9d:fb:90:80:1e:d5:a3:ea:e7:8a:16:f7:f4:d7:cb:35:93:03:
         55:e4:cc:58:31:1e:df:6e:e4:1b:6e:ad:3a:76:56:e5:8b:4e:
         d9:71:af:11:92:a7:7a:e2:66:cc:d2:73:f3:ec:e8:3b:67:f0:
         6a:31:10:82:e8:c4:1e:ae:c3:54:a7:e2:42:86:fe:43:75:ad:
         ef:83:d7:1c:2f:91:94:1c:57:9d:1c:43:94:b1:47:b2:6c:96:
         fd:83:69:0f:6c:e2:18:9b:65:8e:71:08:01:b3:73:46:aa:3c:
         2e:07:14:cd:03:ae:dc:5a:51:da:c5:41:53:cc:f5:fc:c8:db:
         4e:76:27:99:9a:ec:40:68:07:d6:10:e1:f9:68:6b:5d:52:95:
         3d:01:f4:a7:40:11:61:0a
-----BEGIN CERTIFICATE-----
MIIEpzCCAo+gAwIBAgICEAgwDQYJKoZIhvcNAQELBQAwETEPMA0GA1UEAwwGZm9v
YmFyMCAXDTIzMDUxMDE1NTAxOVoYDzIyOTcwMjIyMTU1MDE5WjAeMRwwGgYDVQQD
DBNwcm94eS1sb2NhbGhvc3QtU0FOMIIBIjANBgkqhkiG9w0BAQEFAAOCAQ8AMIIB
CgKCAQEAzBXJhQZDR71Gn08DGuBulBNOsDDqiMo65DmSEsF3UYwNPLkmXC/c/LFa
vw5H/wlgMHmOVSb+0KHtn22KagaF8NDclKZUoabJPlfVaX3pJcHva3fhYnbY5FSR
QLwLEXS4MLvUAnfWvdLQ563ffZiWdEKtU7OIyNwd21FjhO5+hXMUXtTI8AFfZ1Lt
lIf31qooiyyEmIy5kbU4mYBds9TblZYJ7x2hb4bIF4b3Ch5yO1CMU+XO1IzPzIE9
RlX/ZSULNjExpiInR5ZZOMHNZqaag5jcuC4QjbpFrqogbuMLvezmY7VAVdT+l7Hx
jZrAokaOo+2gG+1AsAClKPnaA73BqQIDAQABo4H5MIH2MAkGA1UdEwQCMAAwEQYJ
YIZIAYb4QgEBBAQDAgZAMDMGCWCGSAGG+EIBDQQmFiRPcGVuU1NMIEdlbmVyYXRl
ZCBTZXJ2ZXIgQ2VydGlmaWNhdGUwHQYDVR0OBBYEFMUzc2cDt1EI9L3TzU/cz4MR
U605MBoGA1UdEQQTMBGCCWxvY2FsaG9zdIcEfwAAATBBBgNVHSMEOjA4gBRXC+nL
I+i/Rz5Qej9FfqEYQ50VJ6EVpBMwETEPMA0GA1UEAwwGZm9vYmFyggkA1+KHT6B5
4gwwDgYDVR0PAQH/BAQDAgWgMBMGA1UdJQQMMAoGCCsGAQUFBwMBMA0GCSqGSIb3
DQEBCwUAA4ICAQBD72cpmgxTl3z8cnNsjUh4TuzjFJ3ZHoNM1vBW6cTY3vVU+6U7
/1kjdSZ08IaQ0E1BJQOH4GCkmzM9vRx5uNuGHDgJJg2APvkeKBENPWseGnqa+vwY
In/9RlXCL1ZcXIpF8nR65GzQ4OrsdLcNqPPKGM+kvqDgSjLKFX5dBla3cXzg3Bn6
vj6UhCC+ljRhC/DR1jFJC7AguPlcSQgTm0XAb1gWgQsM+GY4WIPUsLwUNY3iHdUt
6gKuQuGIIlqwz+UxscvT6dJeiFW9YqyFqk78GGtl+Z78kycMximq8GRuctzZla44
rmSexkSKCw8O1Gl+eeBG0HWWKhpgrzAj3NJnDQgqnVgpCR7ICNU6iC0a3EfcXb0N
XFTxXVptDd68GGct3Rv+iw4DGbAP8llp0HpPoTN09yLv/5DhS46sEwBvAJtVg9KW
26iByamNxqYhPRTTQ3EoxuptLZG5WL/sGHXEjBBDiGAIwLud+5CAHtWj6ueKFvf0
18s1kwNV5MxYMR7fbuQbbq06dlbli07Zca8Rkqd64mbM0nPz7Og7Z/BqMRCC6MQe
rsNUp+JChv5Dda3vg9ccL5GUHFedHEOUsUeybJb9g2kPbOIYm2WOcQgBs3NGqjwu
BxTNA67cWlHaxUFTzPX8yNtOdieZmuxAaAfWEOH5aGtdUpU9AfSnQBFhCg==
-----END CERTIFICATE-----
