Certificate:
    Data:
        Version: 3 (0x2)
        Serial Number:
            d8:99:d5:ce:27:f5:be:50
    Signature Algorithm: sha256WithRSAEncryption
        Issuer: C=AU, ST=Some-State, O=Internet Widgits Pty Ltd, CN=testCA
        Validity
            Not Before: Feb  9 01:11:41 2018 GMT
            Not After : Feb  9 01:11:41 2019 GMT
        Subject: C=AU, ST=Some-State, O=Internet Widgits Pty Ltd, CN=pulsar*.apache.com
        Subject Public Key Info:
            Public Key Algorithm: rsaEncryption
                Public-Key: (2048 bit)
                Modulus:
                    00:e8:bb:b6:87:37:6b:68:44:c9:d6:01:ba:a5:93:
                    e4:5f:b1:0e:64:23:a9:7b:bd:c1:a6:a8:b8:b9:2c:
                    c9:73:57:5a:41:89:db:01:64:30:06:dc:5b:4e:01:
                    d3:02:73:86:d1:f9:c2:a2:5f:8c:c1:4c:00:bc:b1:
                    bd:67:18:f6:88:ee:b6:72:be:37:18:2f:5d:c2:a1:
                    30:20:02:38:2b:5e:a9:50:f2:c4:f7:23:74:ef:ad:
                    4e:b1:25:f7:49:5e:8d:98:cd:2d:71:88:2c:73:df:
                    eb:5c:2e:f0:5e:e6:15:1e:82:1e:94:33:15:f5:7b:
                    65:9e:b2:78:89:7a:7f:b7:c1:6a:a3:a9:34:3c:96:
                    32:2a:26:1d:67:d1:0a:80:1f:7c:95:34:c6:fb:ea:
                    11:1c:53:86:81:04:bb:90:45:2b:4f:99:9c:72:f5:
                    ec:86:4b:2f:7e:c3:65:6c:ac:e0:74:5f:35:4e:ee:
                    3f:d0:82:2b:20:bb:80:65:3f:fe:78:96:42:19:35:
                    e1:46:bd:d9:4e:b7:b8:95:5f:25:6b:a6:f2:e3:87:
                    13:d3:29:11:c5:a2:84:bb:12:81:ea:15:60:2f:16:
                    7e:f9:86:bc:e3:93:ed:d7:ec:5a:34:ae:4c:cd:00:
                    40:dc:c6:e7:f6:19:ed:63:7f:8f:d0:dd:c5:11:9d:
                    95:2d
                Exponent: 65537 (0x10001)
        X509v3 extensions:
            X509v3 Basic Constraints: 
                CA:FALSE
            Netscape Comment: 
                OpenSSL Generated Certificate
            X509v3 Subject Key Identifier: 
                06:DC:92:77:64:D3:21:AB:08:F6:E4:0C:9A:47:3F:3A:8B:CB:E8:D8
            X509v3 Authority Key Identifier: 
                keyid:62:6F:F8:A2:85:3C:5C:7E:94:CC:3E:89:D6:AC:4F:65:F2:2E:02:39

    Signature Algorithm: sha256WithRSAEncryption
         70:0b:e4:07:45:98:d3:17:02:2f:44:ec:aa:41:2e:39:57:5e:
         8a:e0:21:77:59:39:1d:66:c2:10:ea:ae:73:8a:50:94:5e:ad:
         05:56:aa:8a:2f:87:44:09:cb:50:2c:5a:44:d1:99:fe:ee:5c:
         82:fb:db:d4:5c:bd:56:dd:e6:37:87:0a:64:2c:85:19:dc:2d:
         d1:22:00:91:53:5d:4c:f2:1c:4f:61:84:8e:77:e1:cc:9e:f8:
         16:bb:15:b0:5a:f4:12:c7:b6:3b:28:cf:e3:95:9a:a8:68:ad:
         02:7e:88:34:88:cd:31:d9:cd:17:8a:ef:5d:d5:40:c7:37:ca:
         d0:38:35:46:d0:7d:f9:b6:85:f5:ef:9d:f3:05:9c:38:3f:67:
         df:97:94:a8:81:5d:e3:70:ff:96:28:58:13:37:8a:3f:2a:b9:
         6a:2a:c6:aa:89:16:91:9a:e7:9c:f3:72:36:74:de:46:7f:4f:
         26:56:6e:05:47:99:ee:38:26:13:77:16:f5:07:cd:f1:69:6e:
         08:c8:3b:ef:35:96:b3:b1:8e:87:eb:bd:da:02:b8:40:aa:e8:
         16:11:80:98:81:77:5a:97:41:58:bd:01:50:4c:6c:c4:14:43:
         d4:ac:c7:25:8b:df:a4:94:f5:29:12:72:56:8c:25:94:d8:8f:
         c1:fa:4b:59
-----BEGIN CERTIFICATE-----
MIIDtjCCAp6gAwIBAgIJANiZ1c4n9b5QMA0GCSqGSIb3DQEBCwUAMFYxCzAJBgNV
BAYTAkFVMRMwEQYDVQQIDApTb21lLVN0YXRlMSEwHwYDVQQKDBhJbnRlcm5ldCBX
aWRnaXRzIFB0eSBMdGQxDzANBgNVBAMMBnRlc3RDQTAeFw0xODAyMDkwMTExNDFa
Fw0xOTAyMDkwMTExNDFaMGIxCzAJBgNVBAYTAkFVMRMwEQYDVQQIDApTb21lLVN0
YXRlMSEwHwYDVQQKDBhJbnRlcm5ldCBXaWRnaXRzIFB0eSBMdGQxGzAZBgNVBAMM
EnB1bHNhciouYXBhY2hlLmNvbTCCASIwDQYJKoZIhvcNAQEBBQADggEPADCCAQoC
ggEBAOi7toc3a2hEydYBuqWT5F+xDmQjqXu9waaouLksyXNXWkGJ2wFkMAbcW04B
0wJzhtH5wqJfjMFMALyxvWcY9ojutnK+NxgvXcKhMCACOCteqVDyxPcjdO+tTrEl
90lejZjNLXGILHPf61wu8F7mFR6CHpQzFfV7ZZ6yeIl6f7fBaqOpNDyWMiomHWfR
CoAffJU0xvvqERxThoEEu5BFK0+ZnHL17IZLL37DZWys4HRfNU7uP9CCKyC7gGU/
/niWQhk14Ua92U63uJVfJWum8uOHE9MpEcWihLsSgeoVYC8WfvmGvOOT7dfsWjSu
TM0AQNzG5/YZ7WN/j9DdxRGdlS0CAwEAAaN7MHkwCQYDVR0TBAIwADAsBglghkgB
hvhCAQ0EHxYdT3BlblNTTCBHZW5lcmF0ZWQgQ2VydGlmaWNhdGUwHQYDVR0OBBYE
FAbckndk0yGrCPbkDJpHPzqLy+jYMB8GA1UdIwQYMBaAFGJv+KKFPFx+lMw+idas
T2XyLgI5MA0GCSqGSIb3DQEBCwUAA4IBAQBwC+QHRZjTFwIvROyqQS45V16K4CF3
WTkdZsIQ6q5zilCUXq0FVqqKL4dECctQLFpE0Zn+7lyC+9vUXL1W3eY3hwpkLIUZ
3C3RIgCRU11M8hxPYYSOd+HMnvgWuxWwWvQSx7Y7KM/jlZqoaK0Cfog0iM0x2c0X
iu9d1UDHN8rQODVG0H35toX1753zBZw4P2ffl5SogV3jcP+WKFgTN4o/KrlqKsaq
iRaRmuec83I2dN5Gf08mVm4FR5nuOCYTdxb1B83xaW4IyDvvNZazsY6H673aArhA
qugWEYCYgXdal0FYvQFQTGzEFEPUrMcli9+klPUpEnJWjCWU2I/B+ktZ
-----END CERTIFICATE-----
