Certificate:
    Data:
        Version: 3 (0x2)
        Serial Number:
            d8:99:d5:ce:27:f5:be:4f
    Signature Algorithm: sha256WithRSAEncryption
        Issuer: C=AU, ST=Some-State, O=Internet Widgits Pty Ltd, CN=testCA
        Validity
            Not Before: Feb  9 01:11:04 2018 GMT
            Not After : Feb  8 01:11:04 2021 GMT
        Subject: C=AU, ST=Some-State, O=Internet Widgits Pty Ltd, CN=testCA
        Subject Public Key Info:
            Public Key Algorithm: rsaEncryption
                Public-Key: (2048 bit)
                Modulus:
                    00:cc:50:cd:b6:68:b2:e0:5f:bd:a5:4a:5c:17:bc:
                    d8:b9:43:e6:22:9a:8a:2e:1b:87:13:b6:ca:59:7e:
                    d7:ee:50:fe:ef:bf:ae:4d:cc:26:70:b4:27:03:64:
                    36:73:d5:fd:2e:08:37:b2:2d:36:26:c8:e3:d3:9e:
                    d3:37:0d:56:fa:a9:78:55:db:09:b3:21:b7:ac:c8:
                    12:35:16:21:ed:a8:5e:4a:a4:e3:11:a0:67:ae:4c:
                    5b:a7:15:ff:72:b1:7a:77:2b:ea:bd:3c:89:5c:40:
                    ae:58:4d:69:56:d6:d9:50:42:e7:d7:b1:58:cc:c8:
                    2a:84:b0:16:7c:3a:82:38:46:78:cc:4b:8a:db:ac:
                    cc:4c:e1:a8:c2:d4:8f:b0:d9:dc:79:f8:70:28:8a:
                    76:4f:dc:b1:09:a2:15:65:33:de:2a:2f:8e:27:7a:
                    0b:93:6b:66:4b:e2:53:33:97:a2:26:bf:f3:b2:8a:
                    f2:6c:5c:41:5b:1a:bb:12:6c:2f:f3:14:35:c4:40:
                    4b:16:65:64:72:16:bf:a3:d6:1b:4d:9b:e6:12:cb:
                    0a:c7:a9:01:f8:63:2b:b7:22:7a:fd:ef:6b:03:9e:
                    e5:06:87:1d:a5:d5:11:4c:11:ae:55:62:11:f5:57:
                    7b:21:51:77:8e:b8:cf:2f:7d:86:d6:38:d3:af:28:
                    bc:8d
                Exponent: 65537 (0x10001)
        X509v3 extensions:
            X509v3 Subject Key Identifier: 
                62:6F:F8:A2:85:3C:5C:7E:94:CC:3E:89:D6:AC:4F:65:F2:2E:02:39
            X509v3 Authority Key Identifier: 
                keyid:62:6F:F8:A2:85:3C:5C:7E:94:CC:3E:89:D6:AC:4F:65:F2:2E:02:39

            X509v3 Basic Constraints: 
                CA:TRUE
    Signature Algorithm: sha256WithRSAEncryption
         01:5a:ff:b8:36:ff:0c:9c:12:cc:ad:b2:60:ac:3c:91:c1:04:
         c0:6b:10:f6:e0:0b:1c:17:44:76:1b:5a:98:c5:33:a2:2c:c8:
         bf:e7:f7:2b:b7:97:37:43:8c:e7:a4:77:5f:5d:48:f6:77:2d:
         bb:e0:f9:02:9e:df:0b:71:63:fd:ff:63:f1:23:ec:ed:bc:ac:
         ea:a8:52:60:a7:c8:b0:f9:f7:66:62:35:ab:72:32:9a:cf:7f:
         cc:96:fe:3b:01:31:04:21:e9:da:76:d1:09:be:66:03:c8:14:
         48:d0:ad:73:3a:16:98:72:d9:1e:98:57:9b:49:59:8b:9a:23:
         a9:e6:66:e6:d0:bc:65:45:fa:eb:ce:5a:21:24:9c:15:99:b9:
         f3:63:ef:0a:bb:68:4d:ee:2e:52:6a:a2:bc:77:79:be:36:b1:
         b5:d8:01:c5:9b:37:b0:db:38:f0:0c:59:35:7f:0c:8b:bf:ec:
         22:bc:dc:14:c8:01:31:4f:a1:0b:82:34:ba:0f:5b:93:2e:4c:
         ee:20:72:31:30:b1:d9:2c:42:84:2a:4e:c5:ea:d8:af:f4:da:
         dd:b5:c4:f2:b0:43:f1:c4:09:9f:3d:5e:44:9f:b3:52:9f:92:
         fe:9d:e3:f4:5b:6f:38:7e:3a:11:5b:99:b8:22:fd:a7:72:5d:
         40:7c:50:f8
-----BEGIN CERTIFICATE-----
MIIDfzCCAmegAwIBAgIJANiZ1c4n9b5PMA0GCSqGSIb3DQEBCwUAMFYxCzAJBgNV
BAYTAkFVMRMwEQYDVQQIDApTb21lLVN0YXRlMSEwHwYDVQQKDBhJbnRlcm5ldCBX
aWRnaXRzIFB0eSBMdGQxDzANBgNVBAMMBnRlc3RDQTAeFw0xODAyMDkwMTExMDRa
Fw0yMTAyMDgwMTExMDRaMFYxCzAJBgNVBAYTAkFVMRMwEQYDVQQIDApTb21lLVN0
YXRlMSEwHwYDVQQKDBhJbnRlcm5ldCBXaWRnaXRzIFB0eSBMdGQxDzANBgNVBAMM
BnRlc3RDQTCCASIwDQYJKoZIhvcNAQEBBQADggEPADCCAQoCggEBAMxQzbZosuBf
vaVKXBe82LlD5iKaii4bhxO2yll+1+5Q/u+/rk3MJnC0JwNkNnPV/S4IN7ItNibI
49Oe0zcNVvqpeFXbCbMht6zIEjUWIe2oXkqk4xGgZ65MW6cV/3Kxencr6r08iVxA
rlhNaVbW2VBC59exWMzIKoSwFnw6gjhGeMxLituszEzhqMLUj7DZ3Hn4cCiKdk/c
sQmiFWUz3iovjid6C5NrZkviUzOXoia/87KK8mxcQVsauxJsL/MUNcRASxZlZHIW
v6PWG02b5hLLCsepAfhjK7ciev3vawOe5QaHHaXVEUwRrlViEfVXeyFRd464zy99
htY4068ovI0CAwEAAaNQME4wHQYDVR0OBBYEFGJv+KKFPFx+lMw+idasT2XyLgI5
MB8GA1UdIwQYMBaAFGJv+KKFPFx+lMw+idasT2XyLgI5MAwGA1UdEwQFMAMBAf8w
DQYJKoZIhvcNAQELBQADggEBAAFa/7g2/wycEsytsmCsPJHBBMBrEPbgCxwXRHYb
WpjFM6IsyL/n9yu3lzdDjOekd19dSPZ3Lbvg+QKe3wtxY/3/Y/Ej7O28rOqoUmCn
yLD592ZiNatyMprPf8yW/jsBMQQh6dp20Qm+ZgPIFEjQrXM6Fphy2R6YV5tJWYua
I6nmZubQvGVF+uvOWiEknBWZufNj7wq7aE3uLlJqorx3eb42sbXYAcWbN7DbOPAM
WTV/DIu/7CK83BTIATFPoQuCNLoPW5MuTO4gcjEwsdksQoQqTsXq2K/02t21xPKw
Q/HECZ89XkSfs1Kfkv6d4/Rbbzh+OhFbmbgi/adyXUB8UPg=
-----END CERTIFICATE-----
