Certificate:
    Data:
        Version: 3 (0x2)
        Serial Number:
            7f:c3:12:28:23:73:86:8e:bb:d6:e6:21:43:e3:72:e8:01:17:3e:d1
        Signature Algorithm: sha256WithRSAEncryption
        Issuer: CN = CARoot
        Validity
            Not Before: Apr 23 17:08:51 2021 GMT
            Not After : Apr 21 17:08:51 2031 GMT
        Subject: CN = CARoot
        Subject Public Key Info:
            Public Key Algorithm: rsaEncryption
                RSA Public-Key: (2048 bit)
                Modulus:
                    00:b3:6a:94:67:7c:33:90:4e:db:b9:94:b0:a6:1a:
                    69:77:bb:33:31:fe:3c:8b:6d:8a:f1:cf:07:d9:87:
                    86:ad:45:cf:4c:e3:e7:35:d5:4b:a3:76:27:9b:30:
                    b1:82:3f:57:29:c9:f0:be:25:49:25:16:64:58:cc:
                    b0:f1:01:2e:19:69:52:c8:38:64:61:16:b4:a7:ba:
                    76:2b:54:e6:a5:80:6c:b6:6c:8a:3c:c1:06:c2:e1:
                    c1:f3:18:6b:87:08:4b:bb:54:f4:b3:72:1d:f2:ce:
                    47:18:5f:82:d3:88:c9:39:7b:71:fc:71:1a:aa:7e:
                    55:6c:35:7f:83:c1:60:e7:7d:b1:80:d0:17:7a:ed:
                    e7:0d:87:8b:59:e3:18:47:e9:cf:de:0d:0e:c6:3e:
                    5c:eb:6e:f4:43:95:31:01:2d:e8:f2:ba:8a:bf:ed:
                    82:0c:7c:14:14:13:0e:fb:ae:f0:3a:7c:29:ee:55:
                    29:ca:46:7a:be:05:9f:fa:75:65:4c:f5:fb:cf:fe:
                    92:8d:78:e2:e1:41:55:32:2c:36:a2:ac:96:43:aa:
                    e2:60:5a:ff:a6:e2:3f:5b:fc:d4:d3:af:cf:78:45:
                    b5:e7:6e:7d:b6:fa:c4:05:84:a6:49:a7:ac:16:8e:
                    b2:17:ac:75:76:f0:29:df:c8:da:a2:01:05:25:08:
                    4d:8f
                Exponent: 65537 (0x10001)
        X509v3 extensions:
            X509v3 Subject Key Identifier: 
                09:93:47:8E:5F:F3:BD:19:A2:77:FD:09:BA:13:A9:B6:C6:75:4E:B0
            X509v3 Authority Key Identifier: 
                keyid:09:93:47:8E:5F:F3:BD:19:A2:77:FD:09:BA:13:A9:B6:C6:75:4E:B0

            X509v3 Basic Constraints: critical
                CA:TRUE
    Signature Algorithm: sha256WithRSAEncryption
         a1:52:44:1e:c0:a1:73:48:98:dd:91:b9:a7:e1:da:c5:48:65:
         d2:6d:38:77:b5:fa:f6:f7:c5:e4:b7:51:28:ea:f1:6c:9e:82:
         80:6d:6f:56:9c:3b:31:b8:71:0e:ad:17:f9:8e:c6:7e:87:a9:
         5f:30:1c:0e:17:c8:c7:c2:3c:96:3d:7d:01:a9:ce:d0:cd:c3:
         55:6b:ce:64:35:53:93:c6:8c:4c:3d:0d:38:01:17:7b:e2:d8:
         b3:a5:78:46:77:fc:7e:da:16:f8:96:d0:72:35:89:c3:15:8c:
         38:37:8b:7f:ff:01:f9:84:b2:e9:8d:11:64:82:36:e7:ef:86:
         a6:de:11:d9:78:b4:07:6c:18:89:aa:d6:6d:a2:d8:24:98:40:
         85:5d:ba:5c:36:75:ad:e8:25:03:2d:94:69:d1:ce:d9:8f:9b:
         fd:79:5d:4b:30:7a:de:18:08:5a:54:e9:7b:7d:e2:cb:20:65:
         99:4c:5a:31:de:c8:2c:01:b1:c8:d1:30:1d:33:bd:ef:9b:43:
         4d:ac:7d:20:1f:c3:10:53:2e:1a:99:d5:6c:62:0e:15:b3:bd:
         3c:88:58:88:0c:4f:06:21:b7:a4:8c:eb:9f:63:2e:5e:1d:c8:
         91:39:9a:2b:e3:bf:e4:0a:bd:6e:4d:71:15:4d:e1:af:01:15:
         99:38:25:12
-----BEGIN CERTIFICATE-----
MIIDAzCCAeugAwIBAgIUf8MSKCNzho671uYhQ+Ny6AEXPtEwDQYJKoZIhvcNAQEL
BQAwETEPMA0GA1UEAwwGQ0FSb290MB4XDTIxMDQyMzE3MDg1MVoXDTMxMDQyMTE3
MDg1MVowETEPMA0GA1UEAwwGQ0FSb290MIIBIjANBgkqhkiG9w0BAQEFAAOCAQ8A
MIIBCgKCAQEAs2qUZ3wzkE7buZSwphppd7szMf48i22K8c8H2YeGrUXPTOPnNdVL
o3YnmzCxgj9XKcnwviVJJRZkWMyw8QEuGWlSyDhkYRa0p7p2K1TmpYBstmyKPMEG
wuHB8xhrhwhLu1T0s3Id8s5HGF+C04jJOXtx/HEaqn5VbDV/g8Fg532xgNAXeu3n
DYeLWeMYR+nP3g0Oxj5c6270Q5UxAS3o8rqKv+2CDHwUFBMO+67wOnwp7lUpykZ6
vgWf+nVlTPX7z/6SjXji4UFVMiw2oqyWQ6riYFr/puI/W/zU06/PeEW15259tvrE
BYSmSaesFo6yF6x1dvAp38jaogEFJQhNjwIDAQABo1MwUTAdBgNVHQ4EFgQUCZNH
jl/zvRmid/0JuhOptsZ1TrAwHwYDVR0jBBgwFoAUCZNHjl/zvRmid/0JuhOptsZ1
TrAwDwYDVR0TAQH/BAUwAwEB/zANBgkqhkiG9w0BAQsFAAOCAQEAoVJEHsChc0iY
3ZG5p+HaxUhl0m04d7X69vfF5LdRKOrxbJ6CgG1vVpw7MbhxDq0X+Y7GfoepXzAc
DhfIx8I8lj19AanO0M3DVWvOZDVTk8aMTD0NOAEXe+LYs6V4Rnf8ftoW+JbQcjWJ
wxWMODeLf/8B+YSy6Y0RZII25++Gpt4R2Xi0B2wYiarWbaLYJJhAhV26XDZ1regl
Ay2UadHO2Y+b/XldSzB63hgIWlTpe33iyyBlmUxaMd7ILAGxyNEwHTO975tDTax9
IB/DEFMuGpnVbGIOFbO9PIhYiAxPBiG3pIzrn2MuXh3IkTmaK+O/5Aq9bk1xFU3h
rwEVmTglEg==
-----END CERTIFICATE-----
