Certificate:
    Data:
        Version: 3 (0x2)
        Serial Number:
            b7:07:a3:fe:2a:7e:03:c6
        Signature Algorithm: sha1WithRSAEncryption
        Issuer: C=AU, ST=Some-State, O=Internet Widgits Pty Ltd, CN=testCA
        Validity
            Not Before: Feb 16 22:52:50 2017 GMT
            Not After : Feb 16 22:52:50 2020 GMT
        Subject: C=AU, ST=Some-State, O=Internet Widgits Pty Ltd, CN=testCA
        Subject Public Key Info:
            Public Key Algorithm: rsaEncryption
            RSA Public Key: (1024 bit)
                Modulus (1024 bit):
                    00:b2:19:fa:5b:d4:d5:5f:ed:5c:64:2b:71:8d:93:
                    5f:01:b3:19:d8:b7:a7:02:41:b5:20:ee:e5:6f:33:
                    58:96:01:cd:22:e2:c8:b4:21:84:4a:a5:ae:24:55:
                    7e:d9:00:a1:ff:fb:6d:77:15:d2:5e:f0:65:f4:3b:
                    bb:ca:e1:9f:3e:02:c7:c7:d8:92:73:ee:b7:3b:5d:
                    d9:a9:f6:ad:07:31:42:90:91:20:fd:32:91:73:a5:
                    a3:f1:93:a0:83:c7:87:84:d9:b3:d0:6a:55:a2:b5:
                    22:97:e5:fc:b7:8d:74:42:ec:5b:82:cd:0d:fc:51:
                    9f:b3:b2:db:cb:7f:9a:e8:21
                Exponent: 65537 (0x10001)
        X509v3 extensions:
            X509v3 Subject Key Identifier: 
                DB:22:F6:EF:06:5B:88:5F:9F:32:15:9E:A4:86:21:C4:85:12:CC:66
            X509v3 Authority Key Identifier: 
                keyid:DB:22:F6:EF:06:5B:88:5F:9F:32:15:9E:A4:86:21:C4:85:12:CC:66
                DirName:/C=AU/ST=Some-State/O=Internet Widgits Pty Ltd/CN=testCA
                serial:B7:07:A3:FE:2A:7E:03:C6

            X509v3 Basic Constraints: 
                CA:TRUE
    Signature Algorithm: sha1WithRSAEncryption
        5b:d3:fb:37:b7:c4:83:0b:9b:77:04:e4:42:fb:3d:7d:4b:a4:
        8c:f5:2d:ca:f4:81:36:f4:87:d8:0f:60:b0:bb:b6:be:cc:84:
        fa:3e:70:c4:bd:fe:24:80:98:6a:84:c9:22:14:46:f7:ae:0f:
        82:0c:6b:ab:87:19:d3:be:0f:23:be:44:05:b5:88:28:b3:f4:
        5b:e4:37:1f:cb:6b:b9:42:25:cc:6b:7e:80:7e:af:6e:57:a4:
        25:bd:47:b9:cb:24:da:54:6a:aa:b8:e4:98:6e:2d:6b:35:a2:
        8f:93:26:d5:b3:c1:7e:aa:de:5e:52:68:5a:1e:c9:4a:f6:ce:
        02:9c
-----BEGIN CERTIFICATE-----
MIIC5DCCAk2gAwIBAgIJALcHo/4qfgPGMA0GCSqGSIb3DQEBBQUAMFYxCzAJBgNV
BAYTAkFVMRMwEQYDVQQIEwpTb21lLVN0YXRlMSEwHwYDVQQKExhJbnRlcm5ldCBX
aWRnaXRzIFB0eSBMdGQxDzANBgNVBAMTBnRlc3RDQTAeFw0xNzAyMTYyMjUyNTBa
Fw0yMDAyMTYyMjUyNTBaMFYxCzAJBgNVBAYTAkFVMRMwEQYDVQQIEwpTb21lLVN0
YXRlMSEwHwYDVQQKExhJbnRlcm5ldCBXaWRnaXRzIFB0eSBMdGQxDzANBgNVBAMT
BnRlc3RDQTCBnzANBgkqhkiG9w0BAQEFAAOBjQAwgYkCgYEAshn6W9TVX+1cZCtx
jZNfAbMZ2LenAkG1IO7lbzNYlgHNIuLItCGESqWuJFV+2QCh//ttdxXSXvBl9Du7
yuGfPgLHx9iSc+63O13ZqfatBzFCkJEg/TKRc6Wj8ZOgg8eHhNmz0GpVorUil+X8
t410Quxbgs0N/FGfs7Lby3+a6CECAwEAAaOBuTCBtjAdBgNVHQ4EFgQU2yL27wZb
iF+fMhWepIYhxIUSzGYwgYYGA1UdIwR/MH2AFNsi9u8GW4hfnzIVnqSGIcSFEsxm
oVqkWDBWMQswCQYDVQQGEwJBVTETMBEGA1UECBMKU29tZS1TdGF0ZTEhMB8GA1UE
ChMYSW50ZXJuZXQgV2lkZ2l0cyBQdHkgTHRkMQ8wDQYDVQQDEwZ0ZXN0Q0GCCQC3
B6P+Kn4DxjAMBgNVHRMEBTADAQH/MA0GCSqGSIb3DQEBBQUAA4GBAFvT+ze3xIML
m3cE5EL7PX1LpIz1Lcr0gTb0h9gPYLC7tr7MhPo+cMS9/iSAmGqEySIURveuD4IM
a6uHGdO+DyO+RAW1iCiz9FvkNx/La7lCJcxrfoB+r25XpCW9R7nLJNpUaqq45Jhu
LWs1oo+TJtWzwX6q3l5SaFoeyUr2zgKc
-----END CERTIFICATE-----
