Certificate:
    Data:
        Version: 1 (0x0)
        Serial Number:
            0c:26:15:df:8f:71:1d:6a:31:d0:da:af:64:ef:80:de:ac:9a:46:74
        Signature Algorithm: sha256WithRSAEncryption
        Issuer: CN = CARoot
        Validity
            Not Before: Apr 23 17:08:51 2021 GMT
            Not After : Apr 21 17:08:51 2031 GMT
        Subject: C = US, ST = CA, O = Apache, OU = Apache Pulsar, CN = superUser
        Subject Public Key Info:
            Public Key Algorithm: rsaEncryption
                RSA Public-Key: (2048 bit)
                Modulus:
                    00:cd:43:7d:98:40:f9:b0:5b:bc:ae:db:c0:0b:ad:
                    26:90:96:e0:62:38:ed:68:b1:70:46:3b:de:44:f9:
                    14:51:86:10:eb:ca:90:e7:88:e8:f9:91:85:e0:dd:
                    b5:b4:14:b9:78:e3:86:d5:54:6d:68:ec:14:92:b4:
                    f8:22:5b:05:3d:ed:31:25:65:08:05:84:ca:e6:0c:
                    21:12:58:32:c7:1a:60:a3:4f:d2:4a:9e:28:19:7c:
                    45:84:00:8c:89:dc:de:8a:e5:4f:88:91:cc:a4:f1:
                    81:45:4c:7d:c2:ff:e2:c1:89:c6:12:73:95:e2:36:
                    bd:db:ae:8b:5a:68:6a:90:51:de:2b:88:5f:aa:67:
                    f4:a8:e3:63:dc:be:19:82:cc:9d:7f:e6:8d:fb:82:
                    be:22:01:3d:56:13:3b:5b:04:b4:e8:c5:18:e6:2e:
                    0d:fa:ba:4a:8d:e8:c6:5a:a1:51:9a:4a:62:d7:af:
                    dd:b4:fc:e2:d5:cd:ae:99:6c:5c:61:56:0b:d7:0c:
                    1a:77:5c:f5:3a:6a:54:b5:9e:33:ac:a9:75:28:9a:
                    76:af:d0:7a:57:00:1b:91:13:31:fd:42:88:21:47:
                    05:10:01:2f:59:bb:c7:3a:d9:e1:58:4c:1b:6c:71:
                    b6:98:ef:dd:03:82:58:a3:32:dc:90:a1:b6:a6:1e:
                    e1:0b
                Exponent: 65537 (0x10001)
    Signature Algorithm: sha256WithRSAEncryption
         33:40:2a:38:48:99:a0:fe:68:4d:07:3b:08:ae:af:a1:7c:ea:
         70:ab:a7:c8:32:b4:ff:9f:5a:51:3b:2b:a2:aa:21:75:44:7d:
         be:e7:fb:08:b9:81:e5:4c:cf:01:86:f9:06:63:4f:ce:7a:1d:
         cb:1e:9e:8f:d5:0a:54:53:69:91:05:10:2c:b0:4f:d4:3a:b5:
         25:0e:25:4c:eb:67:64:d7:85:29:77:63:30:da:2a:77:3f:59:
         c2:8c:e9:02:57:49:93:3a:51:91:1a:b2:59:4d:d5:69:c9:9d:
         cc:e2:4f:b2:6c:5b:ba:45:68:c7:f5:18:f4:1d:b8:0c:eb:fd:
         0a:cf:10:5d:dc:3e:26:49:03:33:37:40:f7:96:88:82:99:5c:
         38:8d:cc:3b:de:b5:b9:ee:f9:ac:ae:ce:03:9a:1e:a7:f8:02:
         73:2e:af:e7:b0:22:cb:3d:a3:ca:85:16:e9:e6:e2:d6:bf:1c:
         1a:4c:ea:14:49:52:84:67:38:97:c7:b3:30:72:cc:c6:08:e5:
         40:0a:87:da:19:98:26:4f:0b:54:43:a2:a0:ea:51:b2:23:88:
         d2:b4:0e:82:4f:02:92:a4:fb:27:e2:06:15:76:e7:27:f2:a2:
         e4:23:7b:24:ca:e6:80:93:2b:cd:54:ca:1b:9b:fd:d9:59:d1:
         96:31:25:7b
-----BEGIN CERTIFICATE-----
MIIC7zCCAdcCFAwmFd+PcR1qMdDar2TvgN6smkZ0MA0GCSqGSIb3DQEBCwUAMBEx
DzANBgNVBAMMBkNBUm9vdDAeFw0yMTA0MjMxNzA4NTFaFw0zMTA0MjExNzA4NTFa
MFcxCzAJBgNVBAYTAlVTMQswCQYDVQQIEwJDQTEPMA0GA1UEChMGQXBhY2hlMRYw
FAYDVQQLEw1BcGFjaGUgUHVsc2FyMRIwEAYDVQQDEwlzdXBlclVzZXIwggEiMA0G
CSqGSIb3DQEBAQUAA4IBDwAwggEKAoIBAQDNQ32YQPmwW7yu28ALrSaQluBiOO1o
sXBGO95E+RRRhhDrypDniOj5kYXg3bW0FLl444bVVG1o7BSStPgiWwU97TElZQgF
hMrmDCESWDLHGmCjT9JKnigZfEWEAIyJ3N6K5U+Ikcyk8YFFTH3C/+LBicYSc5Xi
Nr3brotaaGqQUd4riF+qZ/So42PcvhmCzJ1/5o37gr4iAT1WEztbBLToxRjmLg36
ukqN6MZaoVGaSmLXr920/OLVza6ZbFxhVgvXDBp3XPU6alS1njOsqXUomnav0HpX
ABuREzH9QoghRwUQAS9Zu8c62eFYTBtscbaY790DglijMtyQobamHuELAgMBAAEw
DQYJKoZIhvcNAQELBQADggEBADNAKjhImaD+aE0HOwiur6F86nCrp8gytP+fWlE7
K6KqIXVEfb7n+wi5geVMzwGG+QZjT856Hcseno/VClRTaZEFECywT9Q6tSUOJUzr
Z2TXhSl3YzDaKnc/WcKM6QJXSZM6UZEasllN1WnJncziT7JsW7pFaMf1GPQduAzr
/QrPEF3cPiZJAzM3QPeWiIKZXDiNzDvetbnu+ayuzgOaHqf4AnMur+ewIss9o8qF
Funm4ta/HBpM6hRJUoRnOJfHszByzMYI5UAKh9oZmCZPC1RDoqDqUbIjiNK0DoJP
ApKk+yfiBhV25yfyouQjeyTK5oCTK81Uyhub/dlZ0ZYxJXs=
-----END CERTIFICATE-----
