Certificate:
    Data:
        Version: 3 (0x2)
        Serial Number: 15537474201172114488 (0xd7a0327703a8fc38)
    Signature Algorithm: sha256WithRSAEncryption
        Issuer: CN=CARoot
        Validity
            Not Before: Feb 22 06:26:32 2023 GMT
            Not After : Feb 19 06:26:32 2033 GMT
        Subject: C=US, ST=CA, O=Apache, OU=Apache Pulsar, CN=superUser
        Subject Public Key Info:
            Public Key Algorithm: rsaEncryption
                Public-Key: (2048 bit)
                Modulus:
                    00:cd:43:7d:98:40:f9:b0:5b:bc:ae:db:c0:0b:ad:
                    26:90:96:e0:62:38:ed:68:b1:70:46:3b:de:44:f9:
                    14:51:86:10:eb:ca:90:e7:88:e8:f9:91:85:e0:dd:
                    b5:b4:14:b9:78:e3:86:d5:54:6d:68:ec:14:92:b4:
                    f8:22:5b:05:3d:ed:31:25:65:08:05:84:ca:e6:0c:
                    21:12:58:32:c7:1a:60:a3:4f:d2:4a:9e:28:19:7c:
                    45:84:00:8c:89:dc:de:8a:e5:4f:88:91:cc:a4:f1:
                    81:45:4c:7d:c2:ff:e2:c1:89:c6:12:73:95:e2:36:
                    bd:db:ae:8b:5a:68:6a:90:51:de:2b:88:5f:aa:67:
                    f4:a8:e3:63:dc:be:19:82:cc:9d:7f:e6:8d:fb:82:
                    be:22:01:3d:56:13:3b:5b:04:b4:e8:c5:18:e6:2e:
                    0d:fa:ba:4a:8d:e8:c6:5a:a1:51:9a:4a:62:d7:af:
                    dd:b4:fc:e2:d5:cd:ae:99:6c:5c:61:56:0b:d7:0c:
                    1a:77:5c:f5:3a:6a:54:b5:9e:33:ac:a9:75:28:9a:
                    76:af:d0:7a:57:00:1b:91:13:31:fd:42:88:21:47:
                    05:10:01:2f:59:bb:c7:3a:d9:e1:58:4c:1b:6c:71:
                    b6:98:ef:dd:03:82:58:a3:32:dc:90:a1:b6:a6:1e:
                    e1:0b
                Exponent: 65537 (0x10001)
        X509v3 extensions:
            X509v3 Subject Alternative Name: 
                DNS:localhost, IP Address:127.0.0.1
    Signature Algorithm: sha256WithRSAEncryption
         3b:bd:d4:39:37:b3:a8:bb:34:9f:94:c2:a0:b6:be:89:c4:1f:
         02:0c:b4:08:11:6d:8f:ff:d0:92:2a:a0:91:d9:f9:b0:a8:22:
         d1:cf:7a:f3:6b:a9:b3:ac:1c:21:47:61:09:07:5c:a1:c1:4f:
         5f:14:df:ab:9b:1d:10:bf:7f:b5:20:70:51:f9:4a:6d:ae:bb:
         a4:14:86:36:b8:29:1d:28:36:9c:86:45:17:0b:b1:8b:4f:1d:
         10:f9:e1:12:1e:61:f0:88:1f:b2:2e:f8:e9:d7:2f:b7:59:98:
         ec:50:96:49:11:4d:3d:30:1b:50:82:41:dd:96:11:eb:f9:4d:
         1e:af:52:9a:3c:59:65:ed:b6:db:dd:98:84:9a:f6:75:ab:a1:
         ab:69:a3:6d:b4:db:f3:55:05:29:fa:91:d6:bc:60:8a:9e:8b:
         38:e2:18:18:a6:b3:9f:cc:4e:d8:26:a6:7b:29:d6:52:4d:84:
         33:6a:71:b1:35:c2:6e:cd:05:44:3b:67:bc:1a:55:86:ba:b3:
         3b:80:21:76:ed:93:ce:e3:3d:c4:28:9e:a5:4d:f4:f2:17:9a:
         e8:be:e5:2d:ae:3a:49:54:0f:8d:fd:e2:65:9c:f5:ea:14:1e:
         9f:2a:fd:8d:59:7b:bf:51:72:a2:0c:85:0c:b7:e6:4f:e0:f5:
         f9:06:94:4b
-----BEGIN CERTIFICATE-----
MIIDCTCCAfGgAwIBAgIJANegMncDqPw4MA0GCSqGSIb3DQEBCwUAMBExDzANBgNV
BAMMBkNBUm9vdDAeFw0yMzAyMjIwNjI2MzJaFw0zMzAyMTkwNjI2MzJaMFcxCzAJ
BgNVBAYTAlVTMQswCQYDVQQIEwJDQTEPMA0GA1UEChMGQXBhY2hlMRYwFAYDVQQL
Ew1BcGFjaGUgUHVsc2FyMRIwEAYDVQQDEwlzdXBlclVzZXIwggEiMA0GCSqGSIb3
DQEBAQUAA4IBDwAwggEKAoIBAQDNQ32YQPmwW7yu28ALrSaQluBiOO1osXBGO95E
+RRRhhDrypDniOj5kYXg3bW0FLl444bVVG1o7BSStPgiWwU97TElZQgFhMrmDCES
WDLHGmCjT9JKnigZfEWEAIyJ3N6K5U+Ikcyk8YFFTH3C/+LBicYSc5XiNr3brota
aGqQUd4riF+qZ/So42PcvhmCzJ1/5o37gr4iAT1WEztbBLToxRjmLg36ukqN6MZa
oVGaSmLXr920/OLVza6ZbFxhVgvXDBp3XPU6alS1njOsqXUomnav0HpXABuREzH9
QoghRwUQAS9Zu8c62eFYTBtscbaY790DglijMtyQobamHuELAgMBAAGjHjAcMBoG
A1UdEQQTMBGCCWxvY2FsaG9zdIcEfwAAATANBgkqhkiG9w0BAQsFAAOCAQEAO73U
OTezqLs0n5TCoLa+icQfAgy0CBFtj//Qkiqgkdn5sKgi0c9682ups6wcIUdhCQdc
ocFPXxTfq5sdEL9/tSBwUflKba67pBSGNrgpHSg2nIZFFwuxi08dEPnhEh5h8Igf
si746dcvt1mY7FCWSRFNPTAbUIJB3ZYR6/lNHq9SmjxZZe22292YhJr2dauhq2mj
bbTb81UFKfqR1rxgip6LOOIYGKazn8xO2CameynWUk2EM2pxsTXCbs0FRDtnvBpV
hrqzO4Ahdu2TzuM9xCiepU308hea6L7lLa46SVQPjf3iZZz16hQenyr9jVl7v1Fy
ogyFDLfmT+D1+QaUSw==
-----END CERTIFICATE-----
