Certificate:
    Data:
        Version: 3 (0x2)
        Serial Number:
            61:e6:1b:07:90:6a:4f:f7:cd:46:b9:59:1d:3e:1c:39:0d:f2:5e:01
        Signature Algorithm: sha256WithRSAEncryption
        Issuer: CN = CARoot
        Validity
            Not Before: May 30 13:38:24 2022 GMT
            Not After : May 27 13:38:24 2032 GMT
        Subject: C = US, ST = CA, O = Apache, OU = Apache Pulsar, CN = superUser
        Subject Public Key Info:
            Public Key Algorithm: rsaEncryption
                RSA Public-Key: (2048 bit)
                Modulus:
                    00:cd:43:7d:98:40:f9:b0:5b:bc:ae:db:c0:0b:ad:
                    26:90:96:e0:62:38:ed:68:b1:70:46:3b:de:44:f9:
                    14:51:86:10:eb:ca:90:e7:88:e8:f9:91:85:e0:dd:
                    b5:b4:14:b9:78:e3:86:d5:54:6d:68:ec:14:92:b4:
                    f8:22:5b:05:3d:ed:31:25:65:08:05:84:ca:e6:0c:
                    21:12:58:32:c7:1a:60:a3:4f:d2:4a:9e:28:19:7c:
                    45:84:00:8c:89:dc:de:8a:e5:4f:88:91:cc:a4:f1:
                    81:45:4c:7d:c2:ff:e2:c1:89:c6:12:73:95:e2:36:
                    bd:db:ae:8b:5a:68:6a:90:51:de:2b:88:5f:aa:67:
                    f4:a8:e3:63:dc:be:19:82:cc:9d:7f:e6:8d:fb:82:
                    be:22:01:3d:56:13:3b:5b:04:b4:e8:c5:18:e6:2e:
                    0d:fa:ba:4a:8d:e8:c6:5a:a1:51:9a:4a:62:d7:af:
                    dd:b4:fc:e2:d5:cd:ae:99:6c:5c:61:56:0b:d7:0c:
                    1a:77:5c:f5:3a:6a:54:b5:9e:33:ac:a9:75:28:9a:
                    76:af:d0:7a:57:00:1b:91:13:31:fd:42:88:21:47:
                    05:10:01:2f:59:bb:c7:3a:d9:e1:58:4c:1b:6c:71:
                    b6:98:ef:dd:03:82:58:a3:32:dc:90:a1:b6:a6:1e:
                    e1:0b
                Exponent: 65537 (0x10001)
        X509v3 extensions:
            X509v3 Subject Alternative Name: 
                DNS:localhost, IP Address:127.0.0.1
    Signature Algorithm: sha256WithRSAEncryption
         96:c2:23:2d:46:d0:3d:23:0e:ab:3d:b6:1e:31:96:00:eb:ae:
         17:ac:6e:c0:d4:1a:8d:0f:36:63:27:02:49:4e:24:cf:d3:80:
         88:3a:4f:d0:f1:e5:1c:df:2d:8a:ab:ae:8d:48:77:a0:d0:dc:
         d5:80:1c:a1:3d:0d:49:64:bf:cb:39:84:c9:f3:5d:e0:2d:ba:
         a0:f2:ac:03:85:44:a1:97:6b:0b:de:ed:a7:49:19:46:b2:18:
         49:21:62:43:52:36:6f:47:6c:21:6b:5e:41:85:28:71:6c:22:
         27:35:76:82:ed:ac:ad:d7:fa:9d:4c:7d:6f:44:7e:06:dd:8a:
         11:32:0c:d9:d0:f6:63:2a:40:ae:0d:5a:df:9e:d7:91:8a:db:
         2d:95:f3:19:f0:8f:1e:34:e3:b2:31:67:38:74:fd:3f:e6:49:
         5e:53:eb:88:ae:b1:45:71:0e:67:97:3c:99:4e:c7:ea:1e:02:
         67:b4:54:ef:4f:10:55:4a:70:c0:eb:41:e4:50:d4:48:5e:70:
         c5:0f:79:f2:06:3d:35:ea:ce:5d:13:8e:14:65:fc:98:21:16:
         2d:5d:6d:f8:e0:6b:c7:c6:e4:8a:ca:c9:38:1f:93:27:86:28:
         ef:96:e7:ad:6c:4a:9e:10:78:48:00:f4:4a:43:dc:87:1d:e3:
         d3:39:53:68
-----BEGIN CERTIFICATE-----
MIIDFDCCAfygAwIBAgIUYeYbB5BqT/fNRrlZHT4cOQ3yXgEwDQYJKoZIhvcNAQEL
BQAwETEPMA0GA1UEAwwGQ0FSb290MB4XDTIyMDUzMDEzMzgyNFoXDTMyMDUyNzEz
MzgyNFowVzELMAkGA1UEBhMCVVMxCzAJBgNVBAgTAkNBMQ8wDQYDVQQKEwZBcGFj
aGUxFjAUBgNVBAsTDUFwYWNoZSBQdWxzYXIxEjAQBgNVBAMTCXN1cGVyVXNlcjCC
ASIwDQYJKoZIhvcNAQEBBQADggEPADCCAQoCggEBAM1DfZhA+bBbvK7bwAutJpCW
4GI47WixcEY73kT5FFGGEOvKkOeI6PmRheDdtbQUuXjjhtVUbWjsFJK0+CJbBT3t
MSVlCAWEyuYMIRJYMscaYKNP0kqeKBl8RYQAjInc3orlT4iRzKTxgUVMfcL/4sGJ
xhJzleI2vduui1poapBR3iuIX6pn9KjjY9y+GYLMnX/mjfuCviIBPVYTO1sEtOjF
GOYuDfq6So3oxlqhUZpKYtev3bT84tXNrplsXGFWC9cMGndc9TpqVLWeM6ypdSia
dq/QelcAG5ETMf1CiCFHBRABL1m7xzrZ4VhMG2xxtpjv3QOCWKMy3JChtqYe4QsC
AwEAAaMeMBwwGgYDVR0RBBMwEYIJbG9jYWxob3N0hwR/AAABMA0GCSqGSIb3DQEB
CwUAA4IBAQCWwiMtRtA9Iw6rPbYeMZYA664XrG7A1BqNDzZjJwJJTiTP04CIOk/Q
8eUc3y2Kq66NSHeg0NzVgByhPQ1JZL/LOYTJ813gLbqg8qwDhUShl2sL3u2nSRlG
shhJIWJDUjZvR2wha15BhShxbCInNXaC7ayt1/qdTH1vRH4G3YoRMgzZ0PZjKkCu
DVrfnteRitstlfMZ8I8eNOOyMWc4dP0/5kleU+uIrrFFcQ5nlzyZTsfqHgJntFTv
TxBVSnDA60HkUNRIXnDFD3nyBj016s5dE44UZfyYIRYtXW344GvHxuSKysk4H5Mn
hijvluetbEqeEHhIAPRKQ9yHHePTOVNo
-----END CERTIFICATE-----
