Certificate:
    Data:
        Version: 3 (0x2)
        Serial Number:
            b7:07:a3:fe:2a:7e:03:c8
        Signature Algorithm: sha1WithRSAEncryption
        Issuer: C=AU, ST=Some-State, O=Internet Widgits Pty Ltd, CN=testCA
        Validity
            Not Before: Feb 16 23:00:44 2017 GMT
            Not After : Feb 16 23:00:44 2018 GMT
        Subject: C=AU, ST=Some-State, O=Internet Widgits Pty Ltd, CN=superUser
        Subject Public Key Info:
            Public Key Algorithm: rsaEncryption
            RSA Public Key: (2048 bit)
                Modulus (2048 bit):
                    00:e8:da:eb:a8:0b:e8:e8:20:ca:2a:ae:14:c2:07:
                    87:ab:70:47:00:2c:9d:7b:f5:9f:ea:f6:68:cb:15:
                    37:8c:1d:9d:2e:88:d7:c7:fa:b6:69:be:26:84:ec:
                    a4:96:dc:98:13:0b:7c:72:f3:4e:af:04:28:e7:da:
                    1f:9d:88:e9:1b:a5:21:74:5b:6a:eb:ce:69:fa:3e:
                    57:31:cb:06:4e:38:ab:f5:f5:cf:a9:f3:1f:15:7e:
                    72:14:e0:62:ab:21:61:d4:78:19:82:3a:6b:2d:71:
                    bc:2c:5f:f5:60:5b:46:6b:77:9f:fe:31:64:a6:5a:
                    94:4b:8d:a0:4c:18:3d:b1:d3:32:11:36:5f:2c:2c:
                    6d:32:b8:03:7b:fb:4e:f4:e3:96:6a:40:6b:ca:70:
                    0f:5f:0e:37:ca:6d:5c:02:fa:25:ff:96:75:0f:47:
                    d5:d1:53:43:3a:e7:90:a1:79:3c:e4:95:35:d1:fb:
                    05:02:18:c6:f0:a7:63:78:9b:5c:62:46:0c:50:4c:
                    02:f1:01:8d:15:49:7a:40:0d:84:bd:e0:84:0b:5e:
                    36:2a:05:93:30:3d:6c:2a:bd:e5:9c:5d:0b:f2:93:
                    88:4b:e9:db:92:0e:40:20:1d:ca:a3:74:4b:68:81:
                    8f:25:f7:07:d4:21:f8:d8:b0:06:b8:2e:1e:4e:e6:
                    7c:c9
                Exponent: 65537 (0x10001)
        X509v3 extensions:
            X509v3 Basic Constraints: 
                CA:FALSE
            Netscape Comment: 
                OpenSSL Generated Certificate
            X509v3 Subject Key Identifier: 
                BC:04:07:17:DE:EA:8E:22:D1:0C:B5:7F:51:83:8C:EE:9B:AD:FE:FC
            X509v3 Authority Key Identifier: 
                keyid:DB:22:F6:EF:06:5B:88:5F:9F:32:15:9E:A4:86:21:C4:85:12:CC:66

    Signature Algorithm: sha1WithRSAEncryption
        41:25:f8:28:74:4a:59:88:05:8d:27:7b:c0:eb:8e:4c:7b:91:
        10:2e:5e:e0:e7:90:aa:06:3b:c6:8b:23:c9:20:d5:58:ad:65:
        30:8b:c3:13:0f:15:86:84:a9:f8:85:45:50:57:fe:7e:79:16:
        59:31:df:01:f9:fd:78:3f:33:84:cd:f0:99:bd:f6:c6:19:4f:
        b1:de:bd:6c:9d:9d:8a:98:5f:df:3b:cd:e7:2c:ff:37:e7:7b:
        9b:88:cb:ca:18:08:45:52:1c:ab:f4:3a:f7:13:5e:a2:44:29:
        7e:c2:f0:09:6d:fa:68:82:8b:ac:1c:24:99:66:43:fc:cf:07:
        24:f0
-----BEGIN CERTIFICATE-----
MIIDLDCCApWgAwIBAgIJALcHo/4qfgPIMA0GCSqGSIb3DQEBBQUAMFYxCzAJBgNV
BAYTAkFVMRMwEQYDVQQIEwpTb21lLVN0YXRlMSEwHwYDVQQKExhJbnRlcm5ldCBX
aWRnaXRzIFB0eSBMdGQxDzANBgNVBAMTBnRlc3RDQTAeFw0xNzAyMTYyMzAwNDRa
Fw0xODAyMTYyMzAwNDRaMFkxCzAJBgNVBAYTAkFVMRMwEQYDVQQIEwpTb21lLVN0
YXRlMSEwHwYDVQQKExhJbnRlcm5ldCBXaWRnaXRzIFB0eSBMdGQxEjAQBgNVBAMT
CXN1cGVyVXNlcjCCASIwDQYJKoZIhvcNAQEBBQADggEPADCCAQoCggEBAOja66gL
6OggyiquFMIHh6twRwAsnXv1n+r2aMsVN4wdnS6I18f6tmm+JoTspJbcmBMLfHLz
Tq8EKOfaH52I6RulIXRbauvOafo+VzHLBk44q/X1z6nzHxV+chTgYqshYdR4GYI6
ay1xvCxf9WBbRmt3n/4xZKZalEuNoEwYPbHTMhE2XywsbTK4A3v7TvTjlmpAa8pw
D18ON8ptXAL6Jf+WdQ9H1dFTQzrnkKF5POSVNdH7BQIYxvCnY3ibXGJGDFBMAvEB
jRVJekANhL3ghAteNioFkzA9bCq95ZxdC/KTiEvp25IOQCAdyqN0S2iBjyX3B9Qh
+NiwBrguHk7mfMkCAwEAAaN7MHkwCQYDVR0TBAIwADAsBglghkgBhvhCAQ0EHxYd
T3BlblNTTCBHZW5lcmF0ZWQgQ2VydGlmaWNhdGUwHQYDVR0OBBYEFLwEBxfe6o4i
0Qy1f1GDjO6brf78MB8GA1UdIwQYMBaAFNsi9u8GW4hfnzIVnqSGIcSFEsxmMA0G
CSqGSIb3DQEBBQUAA4GBAEEl+Ch0SlmIBY0ne8Drjkx7kRAuXuDnkKoGO8aLI8kg
1VitZTCLwxMPFYaEqfiFRVBX/n55Flkx3wH5/Xg/M4TN8Jm99sYZT7HevWydnYqY
X987zecs/zfne5uIy8oYCEVSHKv0OvcTXqJEKX7C8Alt+miCi6wcJJlmQ/zPByTw
-----END CERTIFICATE-----
