Certificate:
    Data:
        Version: 3 (0x2)
        Serial Number:
            b7:07:a3:fe:2a:7e:03:c9
        Signature Algorithm: sha1WithRSAEncryption
        Issuer: C=AU, ST=Some-State, O=Internet Widgits Pty Ltd, CN=testCA
        Validity
            Not Before: Feb 16 23:18:35 2017 GMT
            Not After : Feb 16 23:18:35 2018 GMT
        Subject: C=AU, ST=Some-State, O=Internet Widgits Pty Ltd, CN=localhost
        Subject Public Key Info:
            Public Key Algorithm: rsaEncryption
            RSA Public Key: (2048 bit)
                Modulus (2048 bit):
                    00:c5:aa:20:d8:d7:37:d7:e5:dd:c2:03:8d:75:fa:
                    1e:53:7f:c5:3e:9f:12:4b:04:e3:56:97:00:2b:22:
                    cd:8d:5a:da:23:b4:ef:3a:c9:bf:a1:9c:ac:f4:ab:
                    ed:53:25:bc:1e:5b:54:ae:e8:f4:be:31:e2:94:64:
                    61:7e:a1:16:56:26:2a:81:eb:47:b3:89:ea:c4:1d:
                    20:46:68:75:55:68:c4:63:7d:e8:ee:4f:96:91:71:
                    2f:9d:4c:39:05:2c:25:b3:b0:d7:ec:18:f6:c4:86:
                    a3:b0:41:ad:a4:cd:8c:b4:ca:1d:f1:46:e3:84:a5:
                    f8:09:15:8e:9b:ae:38:44:9d:92:a2:1a:74:6a:11:
                    e0:37:cb:fb:75:d8:90:6a:d0:c3:fc:e5:92:da:90:
                    50:01:9f:ce:3b:d2:01:e4:8a:3f:e7:2c:53:51:8f:
                    e9:32:56:bb:7e:5e:4f:c6:9c:ac:05:9d:41:ac:88:
                    61:98:df:12:fe:f2:5e:0f:32:5f:10:bc:da:5e:86:
                    45:1b:11:60:fc:c9:5d:7b:e2:b3:11:27:03:7d:72:
                    b0:72:75:9e:23:15:f7:af:86:60:7b:dd:7e:3d:cc:
                    72:55:02:74:9b:de:c5:87:9d:82:be:3f:3b:84:cd:
                    ba:78:15:c2:d1:d0:d3:a0:af:89:aa:c1:cc:4d:82:
                    f8:d3
                Exponent: 65537 (0x10001)
        X509v3 extensions:
            X509v3 Basic Constraints: 
                CA:FALSE
            Netscape Comment: 
                OpenSSL Generated Certificate
            X509v3 Subject Key Identifier: 
                2A:C2:91:C5:B0:C5:49:15:BC:36:B8:7A:41:5E:67:18:DE:B2:A8:BC
            X509v3 Authority Key Identifier: 
                keyid:DB:22:F6:EF:06:5B:88:5F:9F:32:15:9E:A4:86:21:C4:85:12:CC:66

    Signature Algorithm: sha1WithRSAEncryption
        92:4d:7d:cd:d3:c5:4b:f2:72:22:6e:43:75:17:af:d0:b7:69:
        a7:fd:73:38:f7:33:83:90:f6:a0:fb:89:4f:cd:86:31:60:8b:
        76:b7:7d:82:a7:4f:17:e6:89:f0:d8:73:43:e8:5d:9b:f2:10:
        78:1a:ff:f9:cf:4a:12:41:8a:6d:40:d8:6d:5d:b9:a3:f4:48:
        ea:9d:ba:cb:a8:46:5a:0b:32:f7:e2:a1:ab:d7:ea:f7:6d:af:
        d9:43:de:fd:5e:be:d7:49:f2:1c:f6:39:46:ae:fa:b1:bb:a6:
        98:32:60:9d:70:40:a7:8b:c8:9f:5d:f6:5c:b7:c4:ef:07:ca:
        61:31
-----BEGIN CERTIFICATE-----
MIIDLDCCApWgAwIBAgIJALcHo/4qfgPJMA0GCSqGSIb3DQEBBQUAMFYxCzAJBgNV
BAYTAkFVMRMwEQYDVQQIEwpTb21lLVN0YXRlMSEwHwYDVQQKExhJbnRlcm5ldCBX
aWRnaXRzIFB0eSBMdGQxDzANBgNVBAMTBnRlc3RDQTAeFw0xNzAyMTYyMzE4MzVa
Fw0xODAyMTYyMzE4MzVaMFkxCzAJBgNVBAYTAkFVMRMwEQYDVQQIEwpTb21lLVN0
YXRlMSEwHwYDVQQKExhJbnRlcm5ldCBXaWRnaXRzIFB0eSBMdGQxEjAQBgNVBAMT
CWxvY2FsaG9zdDCCASIwDQYJKoZIhvcNAQEBBQADggEPADCCAQoCggEBAMWqINjX
N9fl3cIDjXX6HlN/xT6fEksE41aXACsizY1a2iO07zrJv6GcrPSr7VMlvB5bVK7o
9L4x4pRkYX6hFlYmKoHrR7OJ6sQdIEZodVVoxGN96O5PlpFxL51MOQUsJbOw1+wY
9sSGo7BBraTNjLTKHfFG44Sl+AkVjpuuOESdkqIadGoR4DfL+3XYkGrQw/zlktqQ
UAGfzjvSAeSKP+csU1GP6TJWu35eT8acrAWdQayIYZjfEv7yXg8yXxC82l6GRRsR
YPzJXXvisxEnA31ysHJ1niMV96+GYHvdfj3MclUCdJvexYedgr4/O4TNungVwtHQ
06CviarBzE2C+NMCAwEAAaN7MHkwCQYDVR0TBAIwADAsBglghkgBhvhCAQ0EHxYd
T3BlblNTTCBHZW5lcmF0ZWQgQ2VydGlmaWNhdGUwHQYDVR0OBBYEFCrCkcWwxUkV
vDa4ekFeZxjesqi8MB8GA1UdIwQYMBaAFNsi9u8GW4hfnzIVnqSGIcSFEsxmMA0G
CSqGSIb3DQEBBQUAA4GBAJJNfc3TxUvyciJuQ3UXr9C3aaf9czj3M4OQ9qD7iU/N
hjFgi3a3fYKnTxfmifDYc0PoXZvyEHga//nPShJBim1A2G1duaP0SOqdusuoRloL
MvfioavX6vdtr9lD3v1evtdJ8hz2OUau+rG7ppgyYJ1wQKeLyJ9d9ly3xO8HymEx
-----END CERTIFICATE-----
