Certificate:
    Data:
        Version: 1 (0x0)
        Serial Number:
            0c:26:15:df:8f:71:1d:6a:31:d0:da:af:64:ef:80:de:ac:9a:46:75
        Signature Algorithm: sha256WithRSAEncryption
        Issuer: CN = CARoot
        Validity
            Not Before: Apr 23 17:08:51 2021 GMT
            Not After : Apr 21 17:08:51 2031 GMT
        Subject: C = US, ST = CA, O = Apache, OU = Apache Pulsar, CN = localhost
        Subject Public Key Info:
            Public Key Algorithm: rsaEncryption
                RSA Public-Key: (2048 bit)
                Modulus:
                    00:af:bf:b7:2d:98:ad:9d:f6:da:a3:13:d4:62:0f:
                    98:be:1c:a2:89:22:ba:6f:d5:fd:1f:67:e3:91:03:
                    98:80:81:0e:ed:d8:f6:70:7f:2c:36:68:3d:53:ea:
                    58:3a:a6:d5:89:66:4b:bd:1e:57:71:13:6d:4b:11:
                    e5:40:a5:76:84:24:92:40:58:80:96:c9:1f:2c:c4:
                    55:eb:a3:79:73:70:5c:37:9a:89:ed:2f:ba:6b:e3:
                    82:7c:69:4a:02:54:8b:81:5e:3c:bf:4c:8a:cb:ea:
                    2c:5e:83:e7:b7:10:08:5f:82:58:a3:89:d1:da:92:
                    ba:2a:28:ee:30:28:3f:5b:ae:10:71:96:c7:e1:12:
                    c5:b0:1a:ad:44:6f:44:3a:11:4a:9a:3c:0f:8d:06:
                    80:7b:34:ef:3f:6c:f4:5e:c5:44:54:1e:c8:dd:c7:
                    80:85:80:d9:68:e6:c6:53:03:77:e1:fe:18:61:07:
                    77:05:4c:ed:59:bc:5d:41:38:6a:ef:5d:a1:b2:60:
                    98:d4:48:28:95:02:8a:0e:fd:cf:7b:1b:d2:11:cc:
                    10:0c:50:73:d7:cc:38:6c:83:dd:79:26:aa:90:c8:
                    9b:84:86:bc:59:e9:62:69:f4:98:1b:c4:80:78:7e:
                    a0:1a:81:9d:d2:e1:66:dd:c4:cc:fc:63:04:ac:ec:
                    a7:35
                Exponent: 65537 (0x10001)
    Signature Algorithm: sha256WithRSAEncryption
         81:a7:27:69:49:e6:1b:c0:f2:a6:10:c2:ef:c7:64:27:69:53:
         3c:bd:8e:7c:b7:b8:bd:2a:02:d4:ab:4b:f3:7b:25:e8:1e:d8:
         3d:88:00:04:6c:a0:da:67:57:65:5d:a2:b6:1d:9a:8c:c7:bd:
         27:53:78:6a:61:3f:61:c1:23:d5:34:65:f1:49:ec:20:5d:f1:
         01:90:99:e8:e6:99:17:ae:c3:ed:e5:da:c4:f1:8c:89:e8:38:
         c1:01:e0:84:27:bf:01:f5:ee:62:87:55:6c:63:fc:45:12:d3:
         2f:f7:e2:b9:f0:33:d0:84:1e:6b:23:7b:3e:ae:25:f6:ff:11:
         12:f4:12:63:b6:88:5d:01:aa:ce:c9:e4:d8:78:a2:2d:4c:9a:
         50:4d:57:80:6a:4b:2d:19:4c:61:21:6a:7a:06:2b:cf:82:ae:
         f3:61:b0:ef:62:ae:3b:2d:2d:0d:c8:da:75:49:72:5a:1c:8b:
         15:c2:bb:07:5b:37:81:f6:42:e4:84:29:4c:cb:fc:4d:e1:86:
         9b:86:af:1f:03:08:58:b0:15:4c:72:fd:e6:62:e2:b2:37:ca:
         eb:a4:67:ec:12:8f:95:57:d7:e7:cf:fe:b5:f9:4a:55:66:c4:
         2f:af:e9:65:a9:54:a8:9d:1a:1e:9a:9e:ec:60:bf:b5:ef:2b:
         b6:d5:02:e9
-----BEGIN CERTIFICATE-----
MIIC7zCCAdcCFAwmFd+PcR1qMdDar2TvgN6smkZ1MA0GCSqGSIb3DQEBCwUAMBEx
DzANBgNVBAMMBkNBUm9vdDAeFw0yMTA0MjMxNzA4NTFaFw0zMTA0MjExNzA4NTFa
MFcxCzAJBgNVBAYTAlVTMQswCQYDVQQIEwJDQTEPMA0GA1UEChMGQXBhY2hlMRYw
FAYDVQQLEw1BcGFjaGUgUHVsc2FyMRIwEAYDVQQDEwlsb2NhbGhvc3QwggEiMA0G
CSqGSIb3DQEBAQUAA4IBDwAwggEKAoIBAQCvv7ctmK2d9tqjE9RiD5i+HKKJIrpv
1f0fZ+ORA5iAgQ7t2PZwfyw2aD1T6lg6ptWJZku9HldxE21LEeVApXaEJJJAWICW
yR8sxFXro3lzcFw3montL7pr44J8aUoCVIuBXjy/TIrL6ixeg+e3EAhfglijidHa
kroqKO4wKD9brhBxlsfhEsWwGq1Eb0Q6EUqaPA+NBoB7NO8/bPRexURUHsjdx4CF
gNlo5sZTA3fh/hhhB3cFTO1ZvF1BOGrvXaGyYJjUSCiVAooO/c97G9IRzBAMUHPX
zDhsg915JqqQyJuEhrxZ6WJp9JgbxIB4fqAagZ3S4WbdxMz8YwSs7Kc1AgMBAAEw
DQYJKoZIhvcNAQELBQADggEBAIGnJ2lJ5hvA8qYQwu/HZCdpUzy9jny3uL0qAtSr
S/N7Jege2D2IAARsoNpnV2VdorYdmozHvSdTeGphP2HBI9U0ZfFJ7CBd8QGQmejm
mReuw+3l2sTxjInoOMEB4IQnvwH17mKHVWxj/EUS0y/34rnwM9CEHmsjez6uJfb/
ERL0EmO2iF0Bqs7J5Nh4oi1MmlBNV4BqSy0ZTGEhanoGK8+CrvNhsO9irjstLQ3I
2nVJclocixXCuwdbN4H2QuSEKUzL/E3hhpuGrx8DCFiwFUxy/eZi4rI3yuukZ+wS
j5VX1+fP/rX5SlVmxC+v6WWpVKidGh6anuxgv7XvK7bVAuk=
-----END CERTIFICATE-----
