Certificate:
    Data:
        Version: 3 (0x2)
        Serial Number: 15537474201172114489 (0xd7a0327703a8fc39)
    Signature Algorithm: sha256WithRSAEncryption
        Issuer: CN=CARoot
        Validity
            Not Before: Feb 22 06:26:32 2023 GMT
            Not After : Feb 19 06:26:32 2033 GMT
        Subject: C=US, ST=CA, O=Apache, OU=Apache Pulsar, CN=localhost
        Subject Public Key Info:
            Public Key Algorithm: rsaEncryption
                Public-Key: (2048 bit)
                Modulus:
                    00:af:bf:b7:2d:98:ad:9d:f6:da:a3:13:d4:62:0f:
                    98:be:1c:a2:89:22:ba:6f:d5:fd:1f:67:e3:91:03:
                    98:80:81:0e:ed:d8:f6:70:7f:2c:36:68:3d:53:ea:
                    58:3a:a6:d5:89:66:4b:bd:1e:57:71:13:6d:4b:11:
                    e5:40:a5:76:84:24:92:40:58:80:96:c9:1f:2c:c4:
                    55:eb:a3:79:73:70:5c:37:9a:89:ed:2f:ba:6b:e3:
                    82:7c:69:4a:02:54:8b:81:5e:3c:bf:4c:8a:cb:ea:
                    2c:5e:83:e7:b7:10:08:5f:82:58:a3:89:d1:da:92:
                    ba:2a:28:ee:30:28:3f:5b:ae:10:71:96:c7:e1:12:
                    c5:b0:1a:ad:44:6f:44:3a:11:4a:9a:3c:0f:8d:06:
                    80:7b:34:ef:3f:6c:f4:5e:c5:44:54:1e:c8:dd:c7:
                    80:85:80:d9:68:e6:c6:53:03:77:e1:fe:18:61:07:
                    77:05:4c:ed:59:bc:5d:41:38:6a:ef:5d:a1:b2:60:
                    98:d4:48:28:95:02:8a:0e:fd:cf:7b:1b:d2:11:cc:
                    10:0c:50:73:d7:cc:38:6c:83:dd:79:26:aa:90:c8:
                    9b:84:86:bc:59:e9:62:69:f4:98:1b:c4:80:78:7e:
                    a0:1a:81:9d:d2:e1:66:dd:c4:cc:fc:63:04:ac:ec:
                    a7:35
                Exponent: 65537 (0x10001)
        X509v3 extensions:
            X509v3 Subject Alternative Name: 
                DNS:localhost, IP Address:127.0.0.1
    Signature Algorithm: sha256WithRSAEncryption
         84:4c:f6:9f:40:bd:44:a2:52:f8:62:62:98:a3:8c:78:17:fb:
         da:71:cb:ca:21:34:b5:98:22:88:31:12:56:7a:d3:f2:88:2c:
         fe:4c:ea:b5:bc:40:f9:5b:cf:06:6d:bd:58:3f:d9:69:99:54:
         e6:5d:3a:6a:4f:92:3b:02:0f:15:01:99:d4:01:86:8f:09:c3:
         a8:b6:f0:c1:21:55:9b:25:c1:2a:73:ee:b5:9b:2c:97:e6:9e:
         a5:f7:b6:52:4a:6a:51:13:06:1b:5a:47:13:2c:ac:26:44:05:
         44:be:47:03:33:3d:15:fc:17:91:f2:2a:44:7d:cc:b1:3c:ac:
         31:ee:48:e9:3d:1d:a6:5f:d3:60:6f:d8:e5:1c:e4:bc:0d:a4:
         dc:8d:4b:4f:e2:e4:87:fe:56:00:67:86:2b:61:c1:e0:da:eb:
         57:56:d1:43:24:15:4c:8a:4a:ac:31:74:ab:46:3e:a6:6e:f6:
         3a:09:c8:bb:ae:1c:ff:17:c1:2a:33:2c:e2:0f:d4:25:71:bc:
         9b:51:28:2f:c4:bb:44:67:86:81:2d:21:f1:22:54:e8:45:09:
         39:7b:e2:19:f6:85:0d:76:c8:2a:ca:a6:e1:d2:c5:f4:49:fe:
         02:f3:8d:cc:e6:23:19:4b:b8:f4:e4:76:91:a9:6d:5a:30:0e:
         7f:00:cb:93
-----BEGIN CERTIFICATE-----
MIIDCTCCAfGgAwIBAgIJANegMncDqPw5MA0GCSqGSIb3DQEBCwUAMBExDzANBgNV
BAMMBkNBUm9vdDAeFw0yMzAyMjIwNjI2MzJaFw0zMzAyMTkwNjI2MzJaMFcxCzAJ
BgNVBAYTAlVTMQswCQYDVQQIEwJDQTEPMA0GA1UEChMGQXBhY2hlMRYwFAYDVQQL
Ew1BcGFjaGUgUHVsc2FyMRIwEAYDVQQDEwlsb2NhbGhvc3QwggEiMA0GCSqGSIb3
DQEBAQUAA4IBDwAwggEKAoIBAQCvv7ctmK2d9tqjE9RiD5i+HKKJIrpv1f0fZ+OR
A5iAgQ7t2PZwfyw2aD1T6lg6ptWJZku9HldxE21LEeVApXaEJJJAWICWyR8sxFXr
o3lzcFw3montL7pr44J8aUoCVIuBXjy/TIrL6ixeg+e3EAhfglijidHakroqKO4w
KD9brhBxlsfhEsWwGq1Eb0Q6EUqaPA+NBoB7NO8/bPRexURUHsjdx4CFgNlo5sZT
A3fh/hhhB3cFTO1ZvF1BOGrvXaGyYJjUSCiVAooO/c97G9IRzBAMUHPXzDhsg915
JqqQyJuEhrxZ6WJp9JgbxIB4fqAagZ3S4WbdxMz8YwSs7Kc1AgMBAAGjHjAcMBoG
A1UdEQQTMBGCCWxvY2FsaG9zdIcEfwAAATANBgkqhkiG9w0BAQsFAAOCAQEAhEz2
n0C9RKJS+GJimKOMeBf72nHLyiE0tZgiiDESVnrT8ogs/kzqtbxA+VvPBm29WD/Z
aZlU5l06ak+SOwIPFQGZ1AGGjwnDqLbwwSFVmyXBKnPutZssl+aepfe2UkpqURMG
G1pHEyysJkQFRL5HAzM9FfwXkfIqRH3MsTysMe5I6T0dpl/TYG/Y5RzkvA2k3I1L
T+Lkh/5WAGeGK2HB4NrrV1bRQyQVTIpKrDF0q0Y+pm72OgnIu64c/xfBKjMs4g/U
JXG8m1EoL8S7RGeGgS0h8SJU6EUJOXviGfaFDXbIKsqm4dLF9En+AvONzOYjGUu4
9OR2kaltWjAOfwDLkw==
-----END CERTIFICATE-----
