Certificate:
    Data:
        Version: 3 (0x2)
        Serial Number:
            61:e6:1b:07:90:6a:4f:f7:cd:46:b9:59:1d:3e:1c:39:0d:f2:5e:02
        Signature Algorithm: sha256WithRSAEncryption
        Issuer: CN = CARoot
        Validity
            Not Before: May 30 13:38:24 2022 GMT
            Not After : May 27 13:38:24 2032 GMT
        Subject: C = US, ST = CA, O = Apache, OU = Apache Pulsar, CN = localhost
        Subject Public Key Info:
            Public Key Algorithm: rsaEncryption
                RSA Public-Key: (2048 bit)
                Modulus:
                    00:af:bf:b7:2d:98:ad:9d:f6:da:a3:13:d4:62:0f:
                    98:be:1c:a2:89:22:ba:6f:d5:fd:1f:67:e3:91:03:
                    98:80:81:0e:ed:d8:f6:70:7f:2c:36:68:3d:53:ea:
                    58:3a:a6:d5:89:66:4b:bd:1e:57:71:13:6d:4b:11:
                    e5:40:a5:76:84:24:92:40:58:80:96:c9:1f:2c:c4:
                    55:eb:a3:79:73:70:5c:37:9a:89:ed:2f:ba:6b:e3:
                    82:7c:69:4a:02:54:8b:81:5e:3c:bf:4c:8a:cb:ea:
                    2c:5e:83:e7:b7:10:08:5f:82:58:a3:89:d1:da:92:
                    ba:2a:28:ee:30:28:3f:5b:ae:10:71:96:c7:e1:12:
                    c5:b0:1a:ad:44:6f:44:3a:11:4a:9a:3c:0f:8d:06:
                    80:7b:34:ef:3f:6c:f4:5e:c5:44:54:1e:c8:dd:c7:
                    80:85:80:d9:68:e6:c6:53:03:77:e1:fe:18:61:07:
                    77:05:4c:ed:59:bc:5d:41:38:6a:ef:5d:a1:b2:60:
                    98:d4:48:28:95:02:8a:0e:fd:cf:7b:1b:d2:11:cc:
                    10:0c:50:73:d7:cc:38:6c:83:dd:79:26:aa:90:c8:
                    9b:84:86:bc:59:e9:62:69:f4:98:1b:c4:80:78:7e:
                    a0:1a:81:9d:d2:e1:66:dd:c4:cc:fc:63:04:ac:ec:
                    a7:35
                Exponent: 65537 (0x10001)
        X509v3 extensions:
            X509v3 Subject Alternative Name: 
                DNS:localhost, IP Address:127.0.0.1
    Signature Algorithm: sha256WithRSAEncryption
         88:89:d7:52:b3:61:49:73:7d:ee:aa:6f:47:11:cd:52:f1:ef:
         9a:63:5f:43:a9:4f:66:c8:36:dd:44:24:ba:4f:c3:6c:94:90:
         85:5e:29:fb:65:cf:03:3b:37:16:5e:88:07:70:97:54:93:f0:
         f3:09:d7:65:60:09:00:fd:7f:dd:6a:ab:25:3a:30:c4:89:34:
         43:82:f6:f5:f4:2d:39:3d:21:90:c4:00:27:c5:6a:23:41:20:
         c6:42:35:56:91:17:fa:31:90:09:6a:4c:e4:a7:53:ae:61:b6:
         d3:5b:82:71:08:d0:0b:af:34:0f:9b:bd:bc:8c:1c:31:43:43:
         97:82:9a:ac:2a:53:ca:11:ce:6f:64:ac:86:c1:f0:62:14:aa:
         c3:dd:15:5b:1c:02:6f:bb:40:87:17:b7:e5:9d:93:9a:51:c9:
         1e:7a:8c:d1:22:75:44:f1:9d:90:4b:3e:1f:6c:ab:6f:e3:be:
         cd:c7:15:9d:04:84:4a:1b:a7:ac:64:5d:d7:3e:23:98:b9:49:
         dd:85:dd:80:4c:46:08:9b:f5:df:eb:19:c8:57:70:ac:43:f9:
         d6:9c:1b:1b:2a:94:cf:c1:35:56:a2:f4:b1:00:5d:9e:1e:36:
         54:72:ab:aa:ef:49:b2:f0:dc:cf:5b:22:51:bf:e4:c9:57:dc:
         d0:48:0d:f2
-----BEGIN CERTIFICATE-----
MIIDFDCCAfygAwIBAgIUYeYbB5BqT/fNRrlZHT4cOQ3yXgIwDQYJKoZIhvcNAQEL
BQAwETEPMA0GA1UEAwwGQ0FSb290MB4XDTIyMDUzMDEzMzgyNFoXDTMyMDUyNzEz
MzgyNFowVzELMAkGA1UEBhMCVVMxCzAJBgNVBAgTAkNBMQ8wDQYDVQQKEwZBcGFj
aGUxFjAUBgNVBAsTDUFwYWNoZSBQdWxzYXIxEjAQBgNVBAMTCWxvY2FsaG9zdDCC
ASIwDQYJKoZIhvcNAQEBBQADggEPADCCAQoCggEBAK+/ty2YrZ322qMT1GIPmL4c
ookium/V/R9n45EDmICBDu3Y9nB/LDZoPVPqWDqm1YlmS70eV3ETbUsR5UCldoQk
kkBYgJbJHyzEVeujeXNwXDeaie0vumvjgnxpSgJUi4FePL9MisvqLF6D57cQCF+C
WKOJ0dqSuioo7jAoP1uuEHGWx+ESxbAarURvRDoRSpo8D40GgHs07z9s9F7FRFQe
yN3HgIWA2WjmxlMDd+H+GGEHdwVM7Vm8XUE4au9dobJgmNRIKJUCig79z3sb0hHM
EAxQc9fMOGyD3XkmqpDIm4SGvFnpYmn0mBvEgHh+oBqBndLhZt3EzPxjBKzspzUC
AwEAAaMeMBwwGgYDVR0RBBMwEYIJbG9jYWxob3N0hwR/AAABMA0GCSqGSIb3DQEB
CwUAA4IBAQCIiddSs2FJc33uqm9HEc1S8e+aY19DqU9myDbdRCS6T8NslJCFXin7
Zc8DOzcWXogHcJdUk/DzCddlYAkA/X/daqslOjDEiTRDgvb19C05PSGQxAAnxWoj
QSDGQjVWkRf6MZAJakzkp1OuYbbTW4JxCNALrzQPm728jBwxQ0OXgpqsKlPKEc5v
ZKyGwfBiFKrD3RVbHAJvu0CHF7flnZOaUckeeozRInVE8Z2QSz4fbKtv477NxxWd
BIRKG6esZF3XPiOYuUndhd2ATEYIm/Xf6xnIV3CsQ/nWnBsbKpTPwTVWovSxAF2e
HjZUcquq70my8NzPWyJRv+TJV9zQSA3y
-----END CERTIFICATE-----
