Certificate:
    Data:
        Version: 3 (0x2)
        Serial Number:
            ac:a4:b3:6b:f5:b4:5f:c9
        Signature Algorithm: sha1WithRSAEncryption
        Issuer: C=US, ST=CA, O=Apache, OU=Apache Incubator, CN=New CA
        Validity
            Not Before: Dec 20 02:22:54 2017 GMT
            Not After : Dec 20 02:22:54 2018 GMT
        Subject: C=US, ST=CA, O=Apache, OU=Apache Incubator, CN=Broker
        Subject Public Key Info:
            Public Key Algorithm: rsaEncryption
            RSA Public Key: (2048 bit)
                Modulus (2048 bit):
                    00:ba:ab:bd:1d:68:9e:1f:6d:99:8a:8e:95:8d:dc:
                    b7:e5:95:1a:40:ff:9e:5d:be:38:e6:19:1c:39:0d:
                    39:e3:e0:cd:96:42:09:41:9f:ca:f1:7f:63:6f:be:
                    a5:46:1b:07:06:01:43:11:ed:e9:f9:a2:41:2a:29:
                    ac:10:d3:df:30:4a:f5:9b:5d:b9:97:2b:d4:10:82:
                    92:55:e7:ca:b1:eb:94:6a:63:e6:28:a3:75:0e:f2:
                    5b:ff:1a:df:0b:3e:2d:6b:c8:c1:49:98:2b:c1:5f:
                    9a:c6:1d:94:26:7f:eb:6f:7e:81:c2:27:23:13:90:
                    4f:89:04:dd:2c:8d:de:4c:f8:9f:33:b9:28:ed:7e:
                    3a:14:fa:6f:d0:cc:50:5e:75:40:39:e2:57:46:af:
                    b7:67:8f:c9:57:f2:85:b0:54:59:02:76:c8:92:2c:
                    af:19:3e:09:d8:5f:a4:d0:9c:a7:35:77:c9:aa:90:
                    50:86:2a:9a:3c:8f:3b:50:a5:01:88:b9:d3:eb:4d:
                    23:24:f2:58:65:1c:03:7a:0a:2c:20:30:b6:46:8d:
                    b1:65:1c:16:0c:bf:bd:87:df:1c:e6:46:c8:f7:4f:
                    60:fd:a1:91:c9:e4:ff:21:e7:e8:65:70:ba:9f:d6:
                    44:07:27:45:1d:69:e7:d6:72:d8:d0:3e:df:2e:61:
                    9e:4d
                Exponent: 65537 (0x10001)
        X509v3 extensions:
            X509v3 Basic Constraints: 
                CA:FALSE
            Netscape Comment: 
                OpenSSL Generated Certificate
            X509v3 Subject Key Identifier: 
                1C:C6:F7:DB:06:C1:1D:1C:7C:9E:64:AF:E5:47:47:80:00:6C:C8:26
            X509v3 Authority Key Identifier: 
                keyid:E5:15:C2:1D:E7:EE:28:3C:FA:B6:3E:58:FB:0B:61:52:6E:B0:81:5B

    Signature Algorithm: sha1WithRSAEncryption
        7f:b4:f8:d6:9c:ea:01:1b:74:19:a9:ee:ea:83:66:11:df:90:
        c5:f0:e6:bc:05:bd:b4:8a:64:d6:08:fd:75:da:2e:f5:f9:20:
        e0:62:8b:b8:b7:bd:c3:92:0f:a3:61:c7:78:6a:68:ea:74:20:
        8e:a8:b7:0f:28:d1:54:8a:55:af:38:8c:a7:64:79:1c:95:f6:
        b8:f3:48:0e:14:2b:78:75:ff:96:70:85:28:30:1f:fa:94:a9:
        43:cd:98:6e:7b:80:68:bc:08:cc:35:1d:df:34:df:3d:58:52:
        c3:5d:55:65:b6:be:ef:a2:78:a0:3c:41:c8:af:9f:74:e6:d8:
        0a:d3
-----BEGIN CERTIFICATE-----
MIIDKzCCApSgAwIBAgIJAKyks2v1tF/JMA0GCSqGSIb3DQEBBQUAMFcxCzAJBgNV
BAYTAlVTMQswCQYDVQQIEwJDQTEPMA0GA1UEChMGQXBhY2hlMRkwFwYDVQQLExBB
cGFjaGUgSW5jdWJhdG9yMQ8wDQYDVQQDEwZOZXcgQ0EwHhcNMTcxMjIwMDIyMjU0
WhcNMTgxMjIwMDIyMjU0WjBXMQswCQYDVQQGEwJVUzELMAkGA1UECBMCQ0ExDzAN
BgNVBAoTBkFwYWNoZTEZMBcGA1UECxMQQXBhY2hlIEluY3ViYXRvcjEPMA0GA1UE
AxMGQnJva2VyMIIBIjANBgkqhkiG9w0BAQEFAAOCAQ8AMIIBCgKCAQEAuqu9HWie
H22Zio6Vjdy35ZUaQP+eXb445hkcOQ054+DNlkIJQZ/K8X9jb76lRhsHBgFDEe3p
+aJBKimsENPfMEr1m125lyvUEIKSVefKseuUamPmKKN1DvJb/xrfCz4ta8jBSZgr
wV+axh2UJn/rb36BwicjE5BPiQTdLI3eTPifM7ko7X46FPpv0MxQXnVAOeJXRq+3
Z4/JV/KFsFRZAnbIkiyvGT4J2F+k0JynNXfJqpBQhiqaPI87UKUBiLnT600jJPJY
ZRwDegosIDC2Ro2xZRwWDL+9h98c5kbI909g/aGRyeT/IefoZXC6n9ZEBydFHWnn
1nLY0D7fLmGeTQIDAQABo3sweTAJBgNVHRMEAjAAMCwGCWCGSAGG+EIBDQQfFh1P
cGVuU1NMIEdlbmVyYXRlZCBDZXJ0aWZpY2F0ZTAdBgNVHQ4EFgQUHMb32wbBHRx8
nmSv5UdHgABsyCYwHwYDVR0jBBgwFoAU5RXCHefuKDz6tj5Y+wthUm6wgVswDQYJ
KoZIhvcNAQEFBQADgYEAf7T41pzqARt0Ganu6oNmEd+QxfDmvAW9tIpk1gj9ddou
9fkg4GKLuLe9w5IPo2HHeGpo6nQgjqi3DyjRVIpVrziMp2R5HJX2uPNIDhQreHX/
lnCFKDAf+pSpQ82YbnuAaLwIzDUd3zTfPVhSw11VZba+76J4oDxByK+fdObYCtM=
-----END CERTIFICATE-----
