Certificate:
    Data:
        Version: 3 (0x2)
        Serial Number:
            ac:a4:b3:6b:f5:b4:5f:c8
        Signature Algorithm: sha1WithRSAEncryption
        Issuer: C=US, ST=CA, O=Apache, OU=Apache Incubator, CN=New CA
        Validity
            Not Before: Dec 20 02:21:42 2017 GMT
            Not After : Dec 19 02:21:42 2020 GMT
        Subject: C=US, ST=CA, O=Apache, OU=Apache Incubator, CN=New CA
        Subject Public Key Info:
            Public Key Algorithm: rsaEncryption
            RSA Public Key: (1024 bit)
                Modulus (1024 bit):
                    00:99:c1:1e:58:35:af:c1:38:38:45:8c:8c:f4:d9:
                    6d:cc:ff:37:31:f9:ba:76:fa:fb:56:41:04:da:d2:
                    a1:ea:a8:ca:6d:3b:b2:bf:4c:e7:55:ab:1c:a1:7e:
                    d4:ec:54:d8:92:c6:f9:1f:e8:e8:d2:27:fa:4e:bb:
                    e6:b2:21:59:bd:19:63:9f:4b:a1:3d:c0:25:d3:70:
                    a4:9c:96:33:c6:53:c4:40:c1:de:a5:75:40:f7:db:
                    51:f4:f6:19:9a:8d:a8:fa:0c:4b:fe:1f:11:70:23:
                    31:76:c2:6c:41:6b:aa:c6:71:22:58:7b:4f:d8:2b:
                    46:d6:e0:84:4d:57:e0:9c:09
                Exponent: 65537 (0x10001)
        X509v3 extensions:
            X509v3 Subject Key Identifier: 
                E5:15:C2:1D:E7:EE:28:3C:FA:B6:3E:58:FB:0B:61:52:6E:B0:81:5B
            X509v3 Authority Key Identifier: 
                keyid:E5:15:C2:1D:E7:EE:28:3C:FA:B6:3E:58:FB:0B:61:52:6E:B0:81:5B
                DirName:/C=US/ST=CA/O=Apache/OU=Apache Incubator/CN=New CA
                serial:AC:A4:B3:6B:F5:B4:5F:C8

            X509v3 Basic Constraints: 
                CA:TRUE
    Signature Algorithm: sha1WithRSAEncryption
        7c:15:8d:92:14:c2:cf:b6:72:17:ba:ba:e0:7c:48:a0:fb:02:
        86:b1:50:90:d0:b2:dd:40:9f:b5:e1:9e:ab:4a:bc:6c:f1:3e:
        c3:7f:b5:b6:18:ab:f7:f0:a2:35:c6:5b:d7:2d:84:e1:d9:3d:
        8c:88:c2:1c:44:61:a8:14:ab:b1:00:b4:00:a5:2d:66:43:86:
        53:a2:d6:4a:73:96:b3:4f:63:b5:8d:8d:7f:e4:ff:82:37:81:
        63:00:0e:d1:ef:59:0c:7c:2b:79:24:97:06:60:cd:a1:b3:37:
        94:68:3d:6c:27:ee:8e:87:88:c1:21:0a:d5:04:66:11:06:11:
        69:92
-----BEGIN CERTIFICATE-----
MIIC6DCCAlGgAwIBAgIJAKyks2v1tF/IMA0GCSqGSIb3DQEBBQUAMFcxCzAJBgNV
BAYTAlVTMQswCQYDVQQIEwJDQTEPMA0GA1UEChMGQXBhY2hlMRkwFwYDVQQLExBB
cGFjaGUgSW5jdWJhdG9yMQ8wDQYDVQQDEwZOZXcgQ0EwHhcNMTcxMjIwMDIyMTQy
WhcNMjAxMjE5MDIyMTQyWjBXMQswCQYDVQQGEwJVUzELMAkGA1UECBMCQ0ExDzAN
BgNVBAoTBkFwYWNoZTEZMBcGA1UECxMQQXBhY2hlIEluY3ViYXRvcjEPMA0GA1UE
AxMGTmV3IENBMIGfMA0GCSqGSIb3DQEBAQUAA4GNADCBiQKBgQCZwR5YNa/BODhF
jIz02W3M/zcx+bp2+vtWQQTa0qHqqMptO7K/TOdVqxyhftTsVNiSxvkf6OjSJ/pO
u+ayIVm9GWOfS6E9wCXTcKScljPGU8RAwd6ldUD321H09hmajaj6DEv+HxFwIzF2
wmxBa6rGcSJYe0/YK0bW4IRNV+CcCQIDAQABo4G7MIG4MB0GA1UdDgQWBBTlFcId
5+4oPPq2Plj7C2FSbrCBWzCBiAYDVR0jBIGAMH6AFOUVwh3n7ig8+rY+WPsLYVJu
sIFboVukWTBXMQswCQYDVQQGEwJVUzELMAkGA1UECBMCQ0ExDzANBgNVBAoTBkFw
YWNoZTEZMBcGA1UECxMQQXBhY2hlIEluY3ViYXRvcjEPMA0GA1UEAxMGTmV3IENB
ggkArKSza/W0X8gwDAYDVR0TBAUwAwEB/zANBgkqhkiG9w0BAQUFAAOBgQB8FY2S
FMLPtnIXurrgfEig+wKGsVCQ0LLdQJ+14Z6rSrxs8T7Df7W2GKv38KI1xlvXLYTh
2T2MiMIcRGGoFKuxALQApS1mQ4ZTotZKc5azT2O1jY1/5P+CN4FjAA7R71kMfCt5
JJcGYM2hszeUaD1sJ+6Oh4jBIQrVBGYRBhFpkg==
-----END CERTIFICATE-----
