Certificate:
    Data:
        Version: 3 (0x2)
        Serial Number:
            ac:a4:b3:6b:f5:b4:5f:ca
        Signature Algorithm: sha1WithRSAEncryption
        Issuer: C=US, ST=CA, O=Apache, OU=Apache Incubator, CN=New CA
        Validity
            Not Before: Dec 20 02:36:47 2017 GMT
            Not After : Dec 20 02:36:47 2018 GMT
        Subject: C=US, ST=CA, O=Apache, OU=Apache Incubator, CN=Client
        Subject Public Key Info:
            Public Key Algorithm: rsaEncryption
            RSA Public Key: (2048 bit)
                Modulus (2048 bit):
                    00:fd:b6:bb:bc:a3:54:2b:06:b3:8e:68:31:e1:f3:
                    3a:c6:3d:98:83:db:f8:fc:58:c6:35:47:4c:58:c1:
                    40:81:71:8e:25:2c:6f:14:a0:5f:f2:85:97:fa:e5:
                    d1:a6:65:26:3f:4b:52:f1:4a:11:1b:f6:af:22:fb:
                    24:74:d7:d3:bd:c3:11:dc:7f:1e:49:96:19:4a:f5:
                    9c:b3:4c:85:5d:33:57:08:43:04:3d:b0:69:1a:15:
                    b3:08:c7:0d:68:09:02:09:37:90:1b:fa:51:e1:c9:
                    6d:58:e3:d0:4e:e9:f9:a5:b5:4c:1a:5d:98:62:a2:
                    d6:cd:a2:89:dc:91:52:c7:f5:19:53:97:5f:58:86:
                    6b:5e:48:6c:81:8d:2f:5c:0e:38:96:d2:b7:f7:47:
                    21:2e:54:2a:51:32:92:0d:f3:c3:94:f5:59:98:2c:
                    11:1a:88:ad:ee:16:5c:72:6b:31:e3:bf:ca:9e:38:
                    4b:49:d2:87:e1:44:69:ef:ba:4d:b9:1d:4b:3f:e0:
                    c1:af:c5:04:6f:5f:2d:6e:d9:12:ac:bb:f1:f8:7f:
                    fc:bd:3a:6a:99:e6:45:f9:91:98:c9:d1:b1:f0:d5:
                    6a:e1:fd:c0:6e:e2:8e:ab:0c:03:87:ad:9c:26:9a:
                    8e:93:4c:82:ec:de:25:49:14:91:ce:80:9f:22:17:
                    aa:cf
                Exponent: 65537 (0x10001)
        X509v3 extensions:
            X509v3 Basic Constraints: 
                CA:FALSE
            Netscape Comment: 
                OpenSSL Generated Certificate
            X509v3 Subject Key Identifier: 
                B2:8F:75:E3:D7:7A:4C:62:B8:5C:04:66:A0:56:14:16:AF:82:43:5A
            X509v3 Authority Key Identifier: 
                keyid:E5:15:C2:1D:E7:EE:28:3C:FA:B6:3E:58:FB:0B:61:52:6E:B0:81:5B

    Signature Algorithm: sha1WithRSAEncryption
        5f:e0:ec:f3:b4:bb:08:a6:15:85:f2:7d:c4:50:c4:87:e5:af:
        1a:38:11:98:b1:a1:d6:47:85:f6:c6:80:cc:b3:2b:f6:27:8e:
        24:1b:66:98:48:e7:d0:dd:cd:37:ea:a2:ad:cf:d8:a7:17:39:
        59:be:72:a1:2a:24:f5:d6:23:14:b9:42:b4:2f:b1:cd:15:98:
        d9:1a:8a:55:3c:f2:78:be:b4:ba:6b:79:3d:29:e8:54:4b:d8:
        0f:1b:bd:69:ef:d2:ca:5c:0f:da:b4:b6:b8:cc:7f:b7:51:3c:
        fc:3a:dd:6d:9c:3c:9e:71:ad:59:72:84:ac:01:6e:c5:66:8b:
        b0:70
-----BEGIN CERTIFICATE-----
MIIDKzCCApSgAwIBAgIJAKyks2v1tF/KMA0GCSqGSIb3DQEBBQUAMFcxCzAJBgNV
BAYTAlVTMQswCQYDVQQIEwJDQTEPMA0GA1UEChMGQXBhY2hlMRkwFwYDVQQLExBB
cGFjaGUgSW5jdWJhdG9yMQ8wDQYDVQQDEwZOZXcgQ0EwHhcNMTcxMjIwMDIzNjQ3
WhcNMTgxMjIwMDIzNjQ3WjBXMQswCQYDVQQGEwJVUzELMAkGA1UECBMCQ0ExDzAN
BgNVBAoTBkFwYWNoZTEZMBcGA1UECxMQQXBhY2hlIEluY3ViYXRvcjEPMA0GA1UE
AxMGQ2xpZW50MIIBIjANBgkqhkiG9w0BAQEFAAOCAQ8AMIIBCgKCAQEA/ba7vKNU
Kwazjmgx4fM6xj2Yg9v4/FjGNUdMWMFAgXGOJSxvFKBf8oWX+uXRpmUmP0tS8UoR
G/avIvskdNfTvcMR3H8eSZYZSvWcs0yFXTNXCEMEPbBpGhWzCMcNaAkCCTeQG/pR
4cltWOPQTun5pbVMGl2YYqLWzaKJ3JFSx/UZU5dfWIZrXkhsgY0vXA44ltK390ch
LlQqUTKSDfPDlPVZmCwRGoit7hZccmsx47/KnjhLSdKH4URp77pNuR1LP+DBr8UE
b18tbtkSrLvx+H/8vTpqmeZF+ZGYydGx8NVq4f3AbuKOqwwDh62cJpqOk0yC7N4l
SRSRzoCfIheqzwIDAQABo3sweTAJBgNVHRMEAjAAMCwGCWCGSAGG+EIBDQQfFh1P
cGVuU1NMIEdlbmVyYXRlZCBDZXJ0aWZpY2F0ZTAdBgNVHQ4EFgQUso9149d6TGK4
XARmoFYUFq+CQ1owHwYDVR0jBBgwFoAU5RXCHefuKDz6tj5Y+wthUm6wgVswDQYJ
KoZIhvcNAQEFBQADgYEAX+Ds87S7CKYVhfJ9xFDEh+WvGjgRmLGh1keF9saAzLMr
9ieOJBtmmEjn0N3NN+qirc/Ypxc5Wb5yoSok9dYjFLlCtC+xzRWY2RqKVTzyeL60
umt5PSnoVEvYDxu9ae/SylwP2rS2uMx/t1E8/DrdbZw8nnGtWXKErAFuxWaLsHA=
-----END CERTIFICATE-----
