Certificate:
    Data:
        Version: 3 (0x2)
        Serial Number:
            ac:a4:b3:6b:f5:b4:5f:cb
        Signature Algorithm: sha1WithRSAEncryption
        Issuer: C=US, ST=CA, O=Apache, OU=Apache Incubator, CN=New CA
        Validity
            Not Before: Dec 20 02:45:24 2017 GMT
            Not After : Dec 20 02:45:24 2018 GMT
        Subject: C=US, ST=CA, O=Apache, OU=Apache Incubator, CN=Proxy
        Subject Public Key Info:
            Public Key Algorithm: rsaEncryption
            RSA Public Key: (2048 bit)
                Modulus (2048 bit):
                    00:e1:e1:06:cc:f5:98:38:88:33:e0:f7:0a:5d:8e:
                    a8:89:ae:8f:cd:c7:77:62:17:c2:a1:d8:fc:fc:d0:
                    d0:86:f1:c8:3c:78:ec:b8:e9:73:1c:d1:72:55:97:
                    c6:47:5a:4c:33:18:32:a1:9c:e1:84:2e:de:40:2f:
                    a7:16:ed:a0:44:d6:4c:2c:04:ef:21:11:0b:6b:cb:
                    36:8d:eb:5a:3d:a1:b6:9b:b5:23:be:bd:66:23:26:
                    c9:82:62:44:51:f8:3a:94:07:6c:52:84:2c:d0:d9:
                    24:8b:0a:f5:1b:c8:31:a2:29:4c:bc:b7:bf:96:e1:
                    56:78:d2:75:08:c9:cb:0d:1a:1d:93:2d:bf:bf:86:
                    10:06:d7:5c:b8:e6:99:05:89:6f:ad:3b:a6:37:45:
                    15:3a:63:8b:d1:d6:0d:e4:d0:c6:06:c6:63:13:21:
                    92:65:c1:1a:ae:1a:72:97:cf:86:ed:6f:a1:77:d8:
                    18:67:f2:27:36:1f:ff:40:6e:57:97:90:5a:28:04:
                    a4:a8:54:cf:a8:87:36:af:26:49:a6:4e:2d:d4:be:
                    e6:17:e2:1a:da:c4:08:87:fd:3f:fe:7b:d8:1e:f2:
                    66:0f:34:1a:02:5d:39:ec:66:3d:46:bc:37:ce:84:
                    a2:51:0b:c8:72:f5:7c:5a:b8:1a:1b:0a:5d:2b:e9:
                    56:4f
                Exponent: 65537 (0x10001)
        X509v3 extensions:
            X509v3 Basic Constraints: 
                CA:FALSE
            Netscape Comment: 
                OpenSSL Generated Certificate
            X509v3 Subject Key Identifier: 
                3F:A7:4A:6A:B1:6A:E1:51:8D:56:19:A2:2D:6A:A8:49:07:D6:87:8A
            X509v3 Authority Key Identifier: 
                keyid:E5:15:C2:1D:E7:EE:28:3C:FA:B6:3E:58:FB:0B:61:52:6E:B0:81:5B

    Signature Algorithm: sha1WithRSAEncryption
        98:89:57:fd:96:0e:78:06:ce:9f:83:48:28:c9:34:a4:32:93:
        d2:65:fb:2f:a9:39:51:ff:7a:89:57:26:6a:59:0d:81:09:20:
        75:ae:c6:aa:f6:8c:d4:d2:7f:f0:78:88:df:74:90:28:11:15:
        77:d3:60:3d:2d:d2:ef:34:1b:03:59:9f:23:1c:21:64:e5:b8:
        a1:99:c3:08:82:31:3d:58:01:23:52:b8:96:c8:d5:42:b3:3b:
        50:43:cc:7d:43:08:1d:c4:46:06:7f:c3:7f:3e:6d:01:f2:25:
        91:4b:70:fd:0f:e3:25:a6:d4:d8:c9:f6:35:65:00:87:c7:03:
        c2:d7
-----BEGIN CERTIFICATE-----
MIIDKjCCApOgAwIBAgIJAKyks2v1tF/LMA0GCSqGSIb3DQEBBQUAMFcxCzAJBgNV
BAYTAlVTMQswCQYDVQQIEwJDQTEPMA0GA1UEChMGQXBhY2hlMRkwFwYDVQQLExBB
cGFjaGUgSW5jdWJhdG9yMQ8wDQYDVQQDEwZOZXcgQ0EwHhcNMTcxMjIwMDI0NTI0
WhcNMTgxMjIwMDI0NTI0WjBWMQswCQYDVQQGEwJVUzELMAkGA1UECBMCQ0ExDzAN
BgNVBAoTBkFwYWNoZTEZMBcGA1UECxMQQXBhY2hlIEluY3ViYXRvcjEOMAwGA1UE
AxMFUHJveHkwggEiMA0GCSqGSIb3DQEBAQUAA4IBDwAwggEKAoIBAQDh4QbM9Zg4
iDPg9wpdjqiJro/Nx3diF8Kh2Pz80NCG8cg8eOy46XMc0XJVl8ZHWkwzGDKhnOGE
Lt5AL6cW7aBE1kwsBO8hEQtryzaN61o9obabtSO+vWYjJsmCYkRR+DqUB2xShCzQ
2SSLCvUbyDGiKUy8t7+W4VZ40nUIycsNGh2TLb+/hhAG11y45pkFiW+tO6Y3RRU6
Y4vR1g3k0MYGxmMTIZJlwRquGnKXz4btb6F32Bhn8ic2H/9AbleXkFooBKSoVM+o
hzavJkmmTi3UvuYX4hraxAiH/T/+e9ge8mYPNBoCXTnsZj1GvDfOhKJRC8hy9Xxa
uBobCl0r6VZPAgMBAAGjezB5MAkGA1UdEwQCMAAwLAYJYIZIAYb4QgENBB8WHU9w
ZW5TU0wgR2VuZXJhdGVkIENlcnRpZmljYXRlMB0GA1UdDgQWBBQ/p0pqsWrhUY1W
GaItaqhJB9aHijAfBgNVHSMEGDAWgBTlFcId5+4oPPq2Plj7C2FSbrCBWzANBgkq
hkiG9w0BAQUFAAOBgQCYiVf9lg54Bs6fg0goyTSkMpPSZfsvqTlR/3qJVyZqWQ2B
CSB1rsaq9ozU0n/weIjfdJAoERV302A9LdLvNBsDWZ8jHCFk5bihmcMIgjE9WAEj
UriWyNVCsztQQ8x9QwgdxEYGf8N/Pm0B8iWRS3D9D+MlptTYyfY1ZQCHxwPC1w==
-----END CERTIFICATE-----
