Certificate:
    Data:
        Version: 3 (0x2)
        Serial Number: 4104 (0x1008)
    Signature Algorithm: sha256WithRSAEncryption
        Issuer: CN=foobar
        Validity
            Not Before: May 10 03:10:29 2023 GMT
            Not After : Feb 22 03:10:29 2297 GMT
        Subject: CN=proxy-localhost-SAN
        Subject Public Key Info:
            Public Key Algorithm: rsaEncryption
                Public-Key: (2048 bit)
                Modulus:
                    00:cd:3b:f6:e2:bb:90:06:12:2b:d6:dd:a8:8e:a2:
                    a0:c4:85:96:ad:7d:fe:39:7d:5b:ca:0c:b3:95:cf:
                    98:a2:13:b1:0a:b9:51:79:78:95:d9:70:99:db:b7:
                    8a:d2:d6:5f:e1:27:4e:99:ed:bc:d5:af:99:47:dd:
                    99:0f:fd:94:47:c0:ea:ce:26:b7:bb:93:a7:bc:40:
                    5b:76:1e:36:da:d8:bf:c7:2c:22:2a:c4:fa:8d:24:
                    09:4a:49:2b:ff:b2:16:5b:f3:3c:85:14:34:01:7c:
                    fd:97:72:d5:11:39:cc:e4:61:0e:67:3a:65:88:ce:
                    1c:fc:0c:40:25:23:a2:8f:77:49:7e:2b:9c:01:9b:
                    c2:1d:de:c1:c1:bc:3b:f1:b2:c8:ec:5f:ff:22:b7:
                    77:3e:76:19:eb:da:1c:79:63:07:cc:29:88:e0:6d:
                    c0:36:ec:a9:a9:a6:08:94:0b:c7:2a:30:8e:4c:be:
                    a4:0f:d4:fa:1a:38:d8:51:ad:ea:1b:1a:5a:cf:9e:
                    8b:34:c5:9b:d6:6d:c9:2e:e6:d3:d3:d4:ab:67:15:
                    62:d5:64:13:8f:5b:73:4b:b2:7c:b3:e7:61:dd:0e:
                    70:d8:17:80:d4:c9:5a:78:a5:af:f1:32:2a:ef:e2:
                    ae:f1:ea:99:db:b6:39:d7:c3:fe:61:34:a6:29:0d:
                    b8:d7
                Exponent: 65537 (0x10001)
        X509v3 extensions:
            X509v3 Basic Constraints: 
                CA:FALSE
            Netscape Cert Type: 
                SSL Server
            Netscape Comment: 
                OpenSSL Generated Server Certificate
            X509v3 Subject Key Identifier: 
                60:F4:A6:FA:9C:25:37:C7:4D:AB:1A:96:CC:0D:87:43:93:7C:8F:32
            X509v3 Subject Alternative Name: 
                DNS:localhost, IP Address:127.0.0.1
            X509v3 Authority Key Identifier: 
                keyid:57:0B:E9:CB:23:E8:BF:47:3E:50:7A:3F:45:7E:A1:18:43:9D:15:27
                DirName:/CN=foobar
                serial:D7:E2:87:4F:A0:79:E2:0C

            X509v3 Key Usage: critical
                Digital Signature, Key Encipherment
            X509v3 Extended Key Usage: 
                TLS Web Server Authentication
    Signature Algorithm: sha256WithRSAEncryption
         4d:db:fe:7b:63:b3:94:8c:9b:bf:39:aa:25:ec:5c:6f:fa:d4:
         f0:f2:9b:87:d9:0a:17:6d:09:c0:45:86:ac:96:87:79:c8:3b:
         de:57:9a:9b:0b:37:bc:b4:ff:24:d1:8e:26:fc:d4:06:c3:61:
         c2:84:85:d7:0f:10:56:c1:fa:26:e7:bd:10:86:55:c4:68:16:
         e8:3f:ce:46:d5:0d:8f:31:73:b6:92:4f:5b:13:66:73:7d:3c:
         8c:34:6b:9e:df:85:eb:3f:48:4c:c2:11:91:aa:73:0a:4c:35:
         36:ed:b6:3d:5a:d7:a5:3e:c4:8b:b6:80:b5:54:a4:3b:f0:cb:
         0c:0e:35:e7:c0:89:98:fc:3c:9e:ae:18:0c:20:42:eb:c4:07:
         19:f3:78:c7:a6:8b:18:b6:7d:49:93:51:0d:a5:2b:19:71:28:
         32:77:d6:0d:a1:6c:2b:fd:d6:46:fa:1e:0d:7e:90:f7:b2:14:
         24:43:b7:00:bc:91:ba:08:4b:89:46:8b:a8:f8:fd:59:be:5a:
         c9:59:73:a0:11:9b:34:00:58:7c:66:56:2d:f4:ac:78:a3:41:
         75:54:b4:ad:34:09:c8:c4:dc:31:dc:9e:2a:f2:3d:57:83:62:
         a0:bb:24:fd:38:87:91:d1:2d:ea:57:50:5d:d5:59:85:2c:4c:
         45:2d:3c:e1:f6:ba:99:7b:82:ca:b6:b9:b9:f5:ff:a9:73:9a:
         22:e5:61:14:21:7f:19:d0:f5:c4:56:a5:99:5b:df:70:77:74:
         5b:f6:c6:08:9c:35:28:a8:0b:7e:c8:8b:c4:6e:3a:73:d2:ea:
         21:c4:37:f2:82:39:69:cf:78:6f:75:d2:92:24:79:3f:fc:69:
         aa:d4:d7:20:e3:77:37:eb:1b:e1:b7:7a:b1:e8:ed:ba:90:c6:
         0d:0b:5b:89:ea:5a:75:a8:c8:ab:4c:d7:76:68:a6:16:64:59:
         bf:26:dc:89:c6:bc:71:fe:35:81:ca:1d:37:e9:c4:25:22:8c:
         31:fc:0f:69:db:d0:52:11:36:9c:3a:03:08:98:0b:2b:b6:47:
         14:2f:87:f2:12:08:43:2f:f0:1a:d9:3f:b8:40:27:91:3b:3e:
         d5:62:3d:79:92:37:25:93:53:03:19:66:39:cb:14:bf:53:5a:
         17:20:3a:fb:ea:c6:d9:ef:5d:bc:61:b0:55:a0:25:45:84:18:
         b5:33:b1:89:9b:47:d3:4e:2d:5e:65:54:d0:59:3b:bd:c3:dc:
         9f:a3:1c:c2:28:db:0c:54:d8:c1:cc:ee:13:86:95:8c:da:31:
         7f:3f:65:20:ca:28:52:2e:ba:b1:68:40:b8:c0:44:c7:c8:96:
         b8:32:03:99:fa:0d:ae:97
-----BEGIN CERTIFICATE-----
MIIEpzCCAo+gAwIBAgICEAgwDQYJKoZIhvcNAQELBQAwETEPMA0GA1UEAwwGZm9v
YmFyMCAXDTIzMDUxMDAzMTAyOVoYDzIyOTcwMjIyMDMxMDI5WjAeMRwwGgYDVQQD
DBNwcm94eS1sb2NhbGhvc3QtU0FOMIIBIjANBgkqhkiG9w0BAQEFAAOCAQ8AMIIB
CgKCAQEAzTv24ruQBhIr1t2ojqKgxIWWrX3+OX1bygyzlc+YohOxCrlReXiV2XCZ
27eK0tZf4SdOme281a+ZR92ZD/2UR8Dqzia3u5OnvEBbdh422ti/xywiKsT6jSQJ
Skkr/7IWW/M8hRQ0AXz9l3LVETnM5GEOZzpliM4c/AxAJSOij3dJfiucAZvCHd7B
wbw78bLI7F//Ird3PnYZ69oceWMHzCmI4G3ANuypqaYIlAvHKjCOTL6kD9T6GjjY
Ua3qGxpaz56LNMWb1m3JLubT09SrZxVi1WQTj1tzS7J8s+dh3Q5w2BeA1MlaeKWv
8TIq7+Ku8eqZ27Y518P+YTSmKQ241wIDAQABo4H5MIH2MAkGA1UdEwQCMAAwEQYJ
YIZIAYb4QgEBBAQDAgZAMDMGCWCGSAGG+EIBDQQmFiRPcGVuU1NMIEdlbmVyYXRl
ZCBTZXJ2ZXIgQ2VydGlmaWNhdGUwHQYDVR0OBBYEFGD0pvqcJTfHTasalswNh0OT
fI8yMBoGA1UdEQQTMBGCCWxvY2FsaG9zdIcEfwAAATBBBgNVHSMEOjA4gBRXC+nL
I+i/Rz5Qej9FfqEYQ50VJ6EVpBMwETEPMA0GA1UEAwwGZm9vYmFyggkA1+KHT6B5
4gwwDgYDVR0PAQH/BAQDAgWgMBMGA1UdJQQMMAoGCCsGAQUFBwMBMA0GCSqGSIb3
DQEBCwUAA4ICAQBN2/57Y7OUjJu/Oaol7Fxv+tTw8puH2QoXbQnARYaslod5yDve
V5qbCze8tP8k0Y4m/NQGw2HChIXXDxBWwfom570QhlXEaBboP85G1Q2PMXO2kk9b
E2ZzfTyMNGue34XrP0hMwhGRqnMKTDU27bY9WtelPsSLtoC1VKQ78MsMDjXnwImY
/DyerhgMIELrxAcZ83jHposYtn1Jk1ENpSsZcSgyd9YNoWwr/dZG+h4NfpD3shQk
Q7cAvJG6CEuJRouo+P1ZvlrJWXOgEZs0AFh8ZlYt9Kx4o0F1VLStNAnIxNwx3J4q
8j1Xg2KguyT9OIeR0S3qV1Bd1VmFLExFLTzh9rqZe4LKtrm59f+pc5oi5WEUIX8Z
0PXEVqWZW99wd3Rb9sYInDUoqAt+yIvEbjpz0uohxDfygjlpz3hvddKSJHk//Gmq
1Ncg43c36xvht3qx6O26kMYNC1uJ6lp1qMirTNd2aKYWZFm/JtyJxrxx/jWByh03
6cQlIowx/A9p29BSETacOgMImAsrtkcUL4fyEghDL/Aa2T+4QCeROz7VYj15kjcl
k1MDGWY5yxS/U1oXIDr76sbZ7128YbBVoCVFhBi1M7GJm0fTTi1eZVTQWTu9w9yf
oxzCKNsMVNjBzO4ThpWM2jF/P2UgyihSLrqxaEC4wETHyJa4MgOZ+g2ulw==
-----END CERTIFICATE-----
