Certificate:
    Data:
        Version: 3 (0x2)
        Serial Number: 15537474201172114493 (0xd7a0327703a8fc3d)
    Signature Algorithm: sha256WithRSAEncryption
        Issuer: CN=CARoot
        Validity
            Not Before: Feb 22 06:26:33 2023 GMT
            Not After : Feb 19 06:26:33 2033 GMT
        Subject: C=US, ST=CA, O=Apache, OU=Apache Pulsar, CN=localhost
        Subject Public Key Info:
            Public Key Algorithm: rsaEncryption
                Public-Key: (2048 bit)
                Modulus:
                    00:af:bf:b7:2d:98:ad:9d:f6:da:a3:13:d4:62:0f:
                    98:be:1c:a2:89:22:ba:6f:d5:fd:1f:67:e3:91:03:
                    98:80:81:0e:ed:d8:f6:70:7f:2c:36:68:3d:53:ea:
                    58:3a:a6:d5:89:66:4b:bd:1e:57:71:13:6d:4b:11:
                    e5:40:a5:76:84:24:92:40:58:80:96:c9:1f:2c:c4:
                    55:eb:a3:79:73:70:5c:37:9a:89:ed:2f:ba:6b:e3:
                    82:7c:69:4a:02:54:8b:81:5e:3c:bf:4c:8a:cb:ea:
                    2c:5e:83:e7:b7:10:08:5f:82:58:a3:89:d1:da:92:
                    ba:2a:28:ee:30:28:3f:5b:ae:10:71:96:c7:e1:12:
                    c5:b0:1a:ad:44:6f:44:3a:11:4a:9a:3c:0f:8d:06:
                    80:7b:34:ef:3f:6c:f4:5e:c5:44:54:1e:c8:dd:c7:
                    80:85:80:d9:68:e6:c6:53:03:77:e1:fe:18:61:07:
                    77:05:4c:ed:59:bc:5d:41:38:6a:ef:5d:a1:b2:60:
                    98:d4:48:28:95:02:8a:0e:fd:cf:7b:1b:d2:11:cc:
                    10:0c:50:73:d7:cc:38:6c:83:dd:79:26:aa:90:c8:
                    9b:84:86:bc:59:e9:62:69:f4:98:1b:c4:80:78:7e:
                    a0:1a:81:9d:d2:e1:66:dd:c4:cc:fc:63:04:ac:ec:
                    a7:35
                Exponent: 65537 (0x10001)
        X509v3 extensions:
            X509v3 Subject Alternative Name: 
                DNS:localhost, IP Address:127.0.0.1
    Signature Algorithm: sha256WithRSAEncryption
         5f:e0:73:7b:5e:db:c0:8b:5e:4c:43:5f:80:94:ca:0b:f8:e9:
         9b:93:91:3d:b1:3a:99:ce:1c:fb:15:32:68:3e:b9:9c:52:d0:
         4b:7f:17:09:ec:af:6b:05:3e:e2:a3:e6:cc:bb:53:d7:ea:4a:
         82:3c:4e:a5:37:ca:f4:1e:38:e2:d6:a5:98:4d:ee:b9:e2:9a:
         48:d2:9f:0a:bc:61:42:70:22:b9:fb:cd:73:72:fb:94:13:ac:
         6e:c5:b6:4b:24:ef:0f:df:2d:e6:56:da:b2:76:e8:16:be:7f:
         3f:1b:99:6e:32:3e:b9:f4:2b:35:72:c7:e4:c6:a5:92:68:c0:
         1f:a0:f7:17:fd:a3:b6:73:98:d3:ea:1c:af:ea:7d:f8:a0:27:
         40:dc:4e:8b:13:28:ba:65:60:c5:90:57:e8:54:c1:83:b4:9d:
         f0:ae:2a:de:27:57:e5:a2:e5:f4:87:1c:df:6b:dc:7b:43:ff:
         b6:be:0b:3b:b2:8b:1a:36:dc:e3:57:aa:52:ef:23:d6:50:d7:
         e4:72:8f:a0:0a:43:de:3d:f2:42:5b:fa:ed:1f:8d:0e:cf:c5:
         6a:ce:3b:8e:fd:6b:68:01:a9:f9:d2:0e:0d:ac:39:8d:f5:6c:
         80:f8:49:af:bb:b9:d4:81:b9:f3:b2:b6:ce:75:1c:20:e8:6a:
         53:dc:26:86
-----BEGIN CERTIFICATE-----
MIIDCTCCAfGgAwIBAgIJANegMncDqPw9MA0GCSqGSIb3DQEBCwUAMBExDzANBgNV
BAMMBkNBUm9vdDAeFw0yMzAyMjIwNjI2MzNaFw0zMzAyMTkwNjI2MzNaMFcxCzAJ
BgNVBAYTAlVTMQswCQYDVQQIEwJDQTEPMA0GA1UEChMGQXBhY2hlMRYwFAYDVQQL
Ew1BcGFjaGUgUHVsc2FyMRIwEAYDVQQDEwlsb2NhbGhvc3QwggEiMA0GCSqGSIb3
DQEBAQUAA4IBDwAwggEKAoIBAQCvv7ctmK2d9tqjE9RiD5i+HKKJIrpv1f0fZ+OR
A5iAgQ7t2PZwfyw2aD1T6lg6ptWJZku9HldxE21LEeVApXaEJJJAWICWyR8sxFXr
o3lzcFw3montL7pr44J8aUoCVIuBXjy/TIrL6ixeg+e3EAhfglijidHakroqKO4w
KD9brhBxlsfhEsWwGq1Eb0Q6EUqaPA+NBoB7NO8/bPRexURUHsjdx4CFgNlo5sZT
A3fh/hhhB3cFTO1ZvF1BOGrvXaGyYJjUSCiVAooO/c97G9IRzBAMUHPXzDhsg915
JqqQyJuEhrxZ6WJp9JgbxIB4fqAagZ3S4WbdxMz8YwSs7Kc1AgMBAAGjHjAcMBoG
A1UdEQQTMBGCCWxvY2FsaG9zdIcEfwAAATANBgkqhkiG9w0BAQsFAAOCAQEAX+Bz
e17bwIteTENfgJTKC/jpm5ORPbE6mc4c+xUyaD65nFLQS38XCeyvawU+4qPmzLtT
1+pKgjxOpTfK9B444talmE3uueKaSNKfCrxhQnAiufvNc3L7lBOsbsW2SyTvD98t
5lbasnboFr5/PxuZbjI+ufQrNXLH5MalkmjAH6D3F/2jtnOY0+ocr+p9+KAnQNxO
ixMoumVgxZBX6FTBg7Sd8K4q3idX5aLl9Icc32vce0P/tr4LO7KLGjbc41eqUu8j
1lDX5HKPoApD3j3yQlv67R+NDs/Fas47jv1raAGp+dIODaw5jfVsgPhJr7u51IG5
87K2znUcIOhqU9wmhg==
-----END CERTIFICATE-----
