Certificate:
    Data:
        Version: 3 (0x2)
        Serial Number:
            61:e6:1b:07:90:6a:4f:f7:cd:46:b9:59:1d:3e:1c:39:0d:f2:5e:05
        Signature Algorithm: sha256WithRSAEncryption
        Issuer: CN = CARoot
        Validity
            Not Before: May 30 13:38:24 2022 GMT
            Not After : May 27 13:38:24 2032 GMT
        Subject: C = US, ST = CA, O = Apache, OU = Apache Pulsar, CN = localhost
        Subject Public Key Info:
            Public Key Algorithm: rsaEncryption
                RSA Public-Key: (2048 bit)
                Modulus:
                    00:af:bf:b7:2d:98:ad:9d:f6:da:a3:13:d4:62:0f:
                    98:be:1c:a2:89:22:ba:6f:d5:fd:1f:67:e3:91:03:
                    98:80:81:0e:ed:d8:f6:70:7f:2c:36:68:3d:53:ea:
                    58:3a:a6:d5:89:66:4b:bd:1e:57:71:13:6d:4b:11:
                    e5:40:a5:76:84:24:92:40:58:80:96:c9:1f:2c:c4:
                    55:eb:a3:79:73:70:5c:37:9a:89:ed:2f:ba:6b:e3:
                    82:7c:69:4a:02:54:8b:81:5e:3c:bf:4c:8a:cb:ea:
                    2c:5e:83:e7:b7:10:08:5f:82:58:a3:89:d1:da:92:
                    ba:2a:28:ee:30:28:3f:5b:ae:10:71:96:c7:e1:12:
                    c5:b0:1a:ad:44:6f:44:3a:11:4a:9a:3c:0f:8d:06:
                    80:7b:34:ef:3f:6c:f4:5e:c5:44:54:1e:c8:dd:c7:
                    80:85:80:d9:68:e6:c6:53:03:77:e1:fe:18:61:07:
                    77:05:4c:ed:59:bc:5d:41:38:6a:ef:5d:a1:b2:60:
                    98:d4:48:28:95:02:8a:0e:fd:cf:7b:1b:d2:11:cc:
                    10:0c:50:73:d7:cc:38:6c:83:dd:79:26:aa:90:c8:
                    9b:84:86:bc:59:e9:62:69:f4:98:1b:c4:80:78:7e:
                    a0:1a:81:9d:d2:e1:66:dd:c4:cc:fc:63:04:ac:ec:
                    a7:35
                Exponent: 65537 (0x10001)
        X509v3 extensions:
            X509v3 Subject Alternative Name: 
                DNS:localhost, IP Address:127.0.0.1
    Signature Algorithm: sha256WithRSAEncryption
         88:1d:a7:42:a1:1c:87:45:4a:e6:5e:aa:9c:7b:71:2e:5c:9e:
         11:85:0f:a3:c5:b4:ea:73:9e:b7:61:9d:4a:e9:cd:1a:c5:2e:
         03:be:a3:2b:b6:12:6a:15:03:04:3f:fb:4a:09:0d:84:0e:dd:
         c0:63:2b:0f:13:fb:1f:98:64:49:48:e7:96:d5:41:c4:ca:94:
         bf:ab:c5:ea:80:2c:ee:1f:ab:12:54:74:f1:f1:56:ea:03:c0:
         1c:0d:8d:b9:6e:b0:d0:5f:21:c1:d3:e3:45:df:cf:64:69:13:
         6c:54:79:06:7d:53:46:77:3c:21:cc:c4:6a:5f:f9:9a:07:0f:
         a5:95:20:f0:0e:93:07:48:96:a9:2c:28:50:21:d7:f8:13:4f:
         b8:ca:aa:1f:a6:41:7c:71:1f:ad:11:3f:3d:1e:e9:81:3c:86:
         c1:af:2d:39:a0:13:9f:99:ec:9a:47:44:df:28:02:a7:1d:6a:
         8d:c0:1e:24:e8:19:fc:1d:dc:67:29:04:be:0a:d6:c5:81:59:
         27:2c:f5:e5:df:ba:0b:c6:50:e5:b3:bd:73:12:3e:2c:ef:a6:
         8a:ed:eb:86:9a:45:45:52:a3:44:78:12:60:17:e2:3a:32:92:
         03:6e:89:89:16:c5:e0:bc:be:a7:cb:93:4b:d8:56:33:a0:a0:
         53:b2:0d:a5
-----BEGIN CERTIFICATE-----
MIIDFDCCAfygAwIBAgIUYeYbB5BqT/fNRrlZHT4cOQ3yXgUwDQYJKoZIhvcNAQEL
BQAwETEPMA0GA1UEAwwGQ0FSb290MB4XDTIyMDUzMDEzMzgyNFoXDTMyMDUyNzEz
MzgyNFowVzELMAkGA1UEBhMCVVMxCzAJBgNVBAgTAkNBMQ8wDQYDVQQKEwZBcGFj
aGUxFjAUBgNVBAsTDUFwYWNoZSBQdWxzYXIxEjAQBgNVBAMTCWxvY2FsaG9zdDCC
ASIwDQYJKoZIhvcNAQEBBQADggEPADCCAQoCggEBAK+/ty2YrZ322qMT1GIPmL4c
ookium/V/R9n45EDmICBDu3Y9nB/LDZoPVPqWDqm1YlmS70eV3ETbUsR5UCldoQk
kkBYgJbJHyzEVeujeXNwXDeaie0vumvjgnxpSgJUi4FePL9MisvqLF6D57cQCF+C
WKOJ0dqSuioo7jAoP1uuEHGWx+ESxbAarURvRDoRSpo8D40GgHs07z9s9F7FRFQe
yN3HgIWA2WjmxlMDd+H+GGEHdwVM7Vm8XUE4au9dobJgmNRIKJUCig79z3sb0hHM
EAxQc9fMOGyD3XkmqpDIm4SGvFnpYmn0mBvEgHh+oBqBndLhZt3EzPxjBKzspzUC
AwEAAaMeMBwwGgYDVR0RBBMwEYIJbG9jYWxob3N0hwR/AAABMA0GCSqGSIb3DQEB
CwUAA4IBAQCIHadCoRyHRUrmXqqce3EuXJ4RhQ+jxbTqc563YZ1K6c0axS4DvqMr
thJqFQMEP/tKCQ2EDt3AYysPE/sfmGRJSOeW1UHEypS/q8XqgCzuH6sSVHTx8Vbq
A8AcDY25brDQXyHB0+NF389kaRNsVHkGfVNGdzwhzMRqX/maBw+llSDwDpMHSJap
LChQIdf4E0+4yqofpkF8cR+tET89HumBPIbBry05oBOfmeyaR0TfKAKnHWqNwB4k
6Bn8HdxnKQS+CtbFgVknLPXl37oLxlDls71zEj4s76aK7euGmkVFUqNEeBJgF+I6
MpIDbomJFsXgvL6ny5NL2FYzoKBTsg2l
-----END CERTIFICATE-----
