Certificate:
    Data:
        Version: 1 (0x0)
        Serial Number:
            0c:26:15:df:8f:71:1d:6a:31:d0:da:af:64:ef:80:de:ac:9a:46:76
        Signature Algorithm: sha256WithRSAEncryption
        Issuer: CN = CARoot
        Validity
            Not Before: Apr 23 17:08:51 2021 GMT
            Not After : Apr 21 17:08:51 2031 GMT
        Subject: C = US, ST = CA, O = Apache, OU = Apache Pulsar, CN = localhost
        Subject Public Key Info:
            Public Key Algorithm: rsaEncryption
                RSA Public-Key: (2048 bit)
                Modulus:
                    00:af:bf:b7:2d:98:ad:9d:f6:da:a3:13:d4:62:0f:
                    98:be:1c:a2:89:22:ba:6f:d5:fd:1f:67:e3:91:03:
                    98:80:81:0e:ed:d8:f6:70:7f:2c:36:68:3d:53:ea:
                    58:3a:a6:d5:89:66:4b:bd:1e:57:71:13:6d:4b:11:
                    e5:40:a5:76:84:24:92:40:58:80:96:c9:1f:2c:c4:
                    55:eb:a3:79:73:70:5c:37:9a:89:ed:2f:ba:6b:e3:
                    82:7c:69:4a:02:54:8b:81:5e:3c:bf:4c:8a:cb:ea:
                    2c:5e:83:e7:b7:10:08:5f:82:58:a3:89:d1:da:92:
                    ba:2a:28:ee:30:28:3f:5b:ae:10:71:96:c7:e1:12:
                    c5:b0:1a:ad:44:6f:44:3a:11:4a:9a:3c:0f:8d:06:
                    80:7b:34:ef:3f:6c:f4:5e:c5:44:54:1e:c8:dd:c7:
                    80:85:80:d9:68:e6:c6:53:03:77:e1:fe:18:61:07:
                    77:05:4c:ed:59:bc:5d:41:38:6a:ef:5d:a1:b2:60:
                    98:d4:48:28:95:02:8a:0e:fd:cf:7b:1b:d2:11:cc:
                    10:0c:50:73:d7:cc:38:6c:83:dd:79:26:aa:90:c8:
                    9b:84:86:bc:59:e9:62:69:f4:98:1b:c4:80:78:7e:
                    a0:1a:81:9d:d2:e1:66:dd:c4:cc:fc:63:04:ac:ec:
                    a7:35
                Exponent: 65537 (0x10001)
    Signature Algorithm: sha256WithRSAEncryption
         3a:38:c8:85:48:ed:84:c9:f4:bc:ef:b4:4b:a1:46:9c:97:9b:
         5f:7e:1a:ff:9b:dc:93:0e:7e:ab:de:09:21:30:1f:7f:2a:f7:
         94:d1:b3:07:3d:b1:71:4f:72:90:1f:41:3d:fe:34:14:ac:5a:
         39:02:f1:a4:8a:d1:d3:c0:48:da:6f:37:dc:b5:1d:60:29:e6:
         c5:b0:ce:b4:52:8d:f6:6b:59:0b:e4:c8:f1:1a:40:3a:4f:bd:
         e2:dd:32:2f:21:3c:33:d7:61:5f:86:cd:94:31:31:f1:ff:c6:
         08:9e:67:bc:8f:9d:bf:38:a8:8c:ff:3f:1f:fb:24:ab:bb:7c:
         fb:1b:c3:1b:62:b4:dd:21:d3:7b:19:92:16:b7:7d:f6:95:ee:
         14:a0:83:de:c5:05:d8:af:44:1d:f7:eb:32:e2:03:ac:c9:12:
         df:11:b6:af:f8:b9:24:ae:55:3e:25:ae:2a:b2:d3:b6:6a:e9:
         f9:28:e6:e0:46:98:66:2c:0d:a3:fe:c7:82:48:13:80:f2:b2:
         d1:5c:7d:bb:11:1c:60:62:1b:f7:1a:11:e1:ee:29:70:f1:95:
         c1:67:c4:f1:e2:d5:f4:24:49:0d:6e:2f:65:7b:48:cd:40:f9:
         c9:26:a3:c7:41:20:d1:6e:2c:38:8e:1b:bc:93:fa:22:39:3d:
         2a:f6:ba:77
-----BEGIN CERTIFICATE-----
MIIC7zCCAdcCFAwmFd+PcR1qMdDar2TvgN6smkZ2MA0GCSqGSIb3DQEBCwUAMBEx
DzANBgNVBAMMBkNBUm9vdDAeFw0yMTA0MjMxNzA4NTFaFw0zMTA0MjExNzA4NTFa
MFcxCzAJBgNVBAYTAlVTMQswCQYDVQQIEwJDQTEPMA0GA1UEChMGQXBhY2hlMRYw
FAYDVQQLEw1BcGFjaGUgUHVsc2FyMRIwEAYDVQQDEwlsb2NhbGhvc3QwggEiMA0G
CSqGSIb3DQEBAQUAA4IBDwAwggEKAoIBAQCvv7ctmK2d9tqjE9RiD5i+HKKJIrpv
1f0fZ+ORA5iAgQ7t2PZwfyw2aD1T6lg6ptWJZku9HldxE21LEeVApXaEJJJAWICW
yR8sxFXro3lzcFw3montL7pr44J8aUoCVIuBXjy/TIrL6ixeg+e3EAhfglijidHa
kroqKO4wKD9brhBxlsfhEsWwGq1Eb0Q6EUqaPA+NBoB7NO8/bPRexURUHsjdx4CF
gNlo5sZTA3fh/hhhB3cFTO1ZvF1BOGrvXaGyYJjUSCiVAooO/c97G9IRzBAMUHPX
zDhsg915JqqQyJuEhrxZ6WJp9JgbxIB4fqAagZ3S4WbdxMz8YwSs7Kc1AgMBAAEw
DQYJKoZIhvcNAQELBQADggEBADo4yIVI7YTJ9LzvtEuhRpyXm19+Gv+b3JMOfqve
CSEwH38q95TRswc9sXFPcpAfQT3+NBSsWjkC8aSK0dPASNpvN9y1HWAp5sWwzrRS
jfZrWQvkyPEaQDpPveLdMi8hPDPXYV+GzZQxMfH/xgieZ7yPnb84qIz/Px/7JKu7
fPsbwxtitN0h03sZkha3ffaV7hSgg97FBdivRB336zLiA6zJEt8Rtq/4uSSuVT4l
riqy07Zq6fko5uBGmGYsDaP+x4JIE4DystFcfbsRHGBiG/caEeHuKXDxlcFnxPHi
1fQkSQ1uL2V7SM1A+ckmo8dBINFuLDiOG7yT+iI5PSr2unc=
-----END CERTIFICATE-----
