Certificate:
    Data:
        Version: 3 (0x2)
        Serial Number: 15358526754272834781 (0xd52472b5c5c3f4dd)
    Signature Algorithm: sha256WithRSAEncryption
        Issuer: CN=CARoot
        Validity
            Not Before: Feb 22 06:26:32 2023 GMT
            Not After : Feb 19 06:26:32 2033 GMT
        Subject: CN=CARoot
        Subject Public Key Info:
            Public Key Algorithm: rsaEncryption
                Public-Key: (2048 bit)
                Modulus:
                    00:d0:87:45:0b:b4:83:11:ab:5a:b4:b6:1c:15:d4:
                    92:6a:0c:ac:3b:76:da:ff:8d:61:1b:bd:96:bd:d7:
                    b0:70:23:87:d4:00:19:b2:e5:63:b7:80:58:4a:a4:
                    d8:a8:a6:4f:eb:c8:8c:54:07:f5:56:52:23:64:fc:
                    66:54:39:f1:33:d0:e5:cc:b6:40:c8:d7:9a:9f:0e:
                    c4:aa:57:b0:b3:e2:41:61:54:ca:1f:90:3b:18:ef:
                    60:d2:dc:ee:34:29:33:08:1b:37:4b:c4:ca:7e:cb:
                    94:7f:50:c4:8d:16:2f:90:03:94:07:bf:cf:52:ff:
                    24:54:56:ac:74:6c:d3:31:8c:ce:ef:b3:14:5a:5b:
                    8a:0c:83:2d:e1:f7:4d:60:2f:a1:4d:85:38:96:7f:
                    01:2f:9a:99:c7:2e:3d:09:4d:5e:53:df:fd:29:9f:
                    ff:6b:e4:c2:a1:e3:67:85:db:e2:02:4d:6f:29:d4:
                    e1:b3:a2:34:71:e0:90:dd:3f:b3:3f:86:41:8c:97:
                    09:e6:c3:de:a0:0e:d3:d4:3e:ce:ea:58:70:e6:9f:
                    24:a8:19:ca:df:61:b8:9c:c3:4e:53:d0:69:96:44:
                    84:76:2b:99:65:08:06:42:d4:b2:76:a7:2f:69:12:
                    d5:c2:65:a6:ff:2c:77:73:00:e7:97:a5:77:6b:8a:
                    9c:3f
                Exponent: 65537 (0x10001)
        X509v3 extensions:
            X509v3 Basic Constraints: critical
                CA:TRUE
            X509v3 Subject Key Identifier: 
                A7:55:6B:51:10:75:CE:4E:5B:0B:64:FF:A9:6D:23:FB:57:88:59:69
            X509v3 Authority Key Identifier: 
                keyid:A7:55:6B:51:10:75:CE:4E:5B:0B:64:FF:A9:6D:23:FB:57:88:59:69
                DirName:/CN=CARoot
                serial:D5:24:72:B5:C5:C3:F4:DD

    Signature Algorithm: sha256WithRSAEncryption
         21:b1:4d:2b:14:1e:5a:91:5d:28:9e:ba:cb:ed:f1:96:da:c3:
         fa:8d:b5:74:e4:c5:fb:2f:3e:39:b4:a6:59:69:dd:84:64:a8:
         f0:e0:39:d2:ef:87:cc:8b:09:9f:0a:84:1f:d0:96:9c:4b:64:
         ea:08:09:26:1c:84:f4:06:5f:5e:b9:ba:b3:3c:6c:81:e0:93:
         46:89:07:51:95:36:77:96:76:5d:a6:68:71:bb:60:88:a7:83:
         27:7c:66:5d:64:36:cb:8e:bd:02:f7:fb:52:63:83:2f:fe:57:
         4c:d5:0c:1b:ea:ef:88:ad:8c:a9:d4:b3:2c:b8:c4:e2:90:cb:
         0f:24:0e:df:fc:2a:c6:83:08:49:45:b0:41:85:0e:b4:6f:f7:
         18:56:7b:a5:0b:f6:1b:7f:72:88:ee:c8:ef:b3:e3:3e:f0:68:
         1b:c9:55:bb:4d:21:65:6b:9e:5c:dd:60:4b:7f:f1:84:f8:67:
         51:c2:60:88:42:6e:6c:9c:14:b8:96:b0:18:10:97:2c:94:e7:
         79:14:7b:d1:a2:a4:d8:94:84:ac:a9:ca:17:95:c2:27:8b:2b:
         d8:19:6a:14:4b:c3:03:a6:30:55:40:bd:ce:0c:c2:d5:af:7d:
         6d:65:89:6b:74:ed:21:12:f1:aa:c9:c9:ba:da:9a:ca:14:6c:
         39:f4:02:32
-----BEGIN CERTIFICATE-----
MIIDGjCCAgKgAwIBAgIJANUkcrXFw/TdMA0GCSqGSIb3DQEBCwUAMBExDzANBgNV
BAMMBkNBUm9vdDAeFw0yMzAyMjIwNjI2MzJaFw0zMzAyMTkwNjI2MzJaMBExDzAN
BgNVBAMMBkNBUm9vdDCCASIwDQYJKoZIhvcNAQEBBQADggEPADCCAQoCggEBANCH
RQu0gxGrWrS2HBXUkmoMrDt22v+NYRu9lr3XsHAjh9QAGbLlY7eAWEqk2KimT+vI
jFQH9VZSI2T8ZlQ58TPQ5cy2QMjXmp8OxKpXsLPiQWFUyh+QOxjvYNLc7jQpMwgb
N0vEyn7LlH9QxI0WL5ADlAe/z1L/JFRWrHRs0zGMzu+zFFpbigyDLeH3TWAvoU2F
OJZ/AS+amccuPQlNXlPf/Smf/2vkwqHjZ4Xb4gJNbynU4bOiNHHgkN0/sz+GQYyX
CebD3qAO09Q+zupYcOafJKgZyt9huJzDTlPQaZZEhHYrmWUIBkLUsnanL2kS1cJl
pv8sd3MA55eld2uKnD8CAwEAAaN1MHMwDwYDVR0TAQH/BAUwAwEB/zAdBgNVHQ4E
FgQUp1VrURB1zk5bC2T/qW0j+1eIWWkwQQYDVR0jBDowOIAUp1VrURB1zk5bC2T/
qW0j+1eIWWmhFaQTMBExDzANBgNVBAMMBkNBUm9vdIIJANUkcrXFw/TdMA0GCSqG
SIb3DQEBCwUAA4IBAQAhsU0rFB5akV0onrrL7fGW2sP6jbV05MX7Lz45tKZZad2E
ZKjw4DnS74fMiwmfCoQf0JacS2TqCAkmHIT0Bl9eubqzPGyB4JNGiQdRlTZ3lnZd
pmhxu2CIp4MnfGZdZDbLjr0C9/tSY4Mv/ldM1Qwb6u+IrYyp1LMsuMTikMsPJA7f
/CrGgwhJRbBBhQ60b/cYVnulC/Ybf3KI7sjvs+M+8GgbyVW7TSFla55c3WBLf/GE
+GdRwmCIQm5snBS4lrAYEJcslOd5FHvRoqTYlISsqcoXlcIniyvYGWoUS8MDpjBV
QL3ODMLVr31tZYlrdO0hEvGqycm62prKFGw59AIy
-----END CERTIFICATE-----
