Certificate:
    Data:
        Version: 3 (0x2)
        Serial Number:
            70:4c:6b:e0:aa:cc:01:77:f2:1f:04:8c:d4:72:03:a5:32:5f:c7:be
        Signature Algorithm: sha256WithRSAEncryption
        Issuer: CN = CARoot
        Validity
            Not Before: May 30 13:38:24 2022 GMT
            Not After : May 27 13:38:24 2032 GMT
        Subject: CN = CARoot
        Subject Public Key Info:
            Public Key Algorithm: rsaEncryption
                RSA Public-Key: (2048 bit)
                Modulus:
                    00:dc:9c:01:30:5f:c5:42:48:10:78:30:5d:66:20:
                    0e:74:61:f6:82:74:9f:6f:b2:ed:00:9e:6c:21:b6:
                    83:21:6b:54:34:e8:a9:dc:81:83:7a:0e:9f:cc:3d:
                    eb:97:ee:cf:ca:0e:5f:96:81:dc:e7:75:88:91:2f:
                    d5:65:74:c2:d8:67:58:d8:41:6a:5f:a9:79:dc:29:
                    36:4a:b8:39:20:d2:f8:a8:59:9f:e3:be:f9:61:80:
                    1b:ce:63:bb:12:56:06:b9:77:4e:6a:40:65:9b:bf:
                    5b:f8:27:88:f5:ff:40:ee:47:bc:2d:8e:c3:a6:62:
                    0d:18:76:d1:f5:af:1a:6b:25:4e:d4:55:15:f0:e3:
                    97:1b:68:eb:75:b8:80:ea:64:ef:7e:e2:f0:5c:da:
                    6d:d6:16:7b:0f:5e:ae:72:47:5a:df:0b:8a:e0:74:
                    c1:b7:82:0d:97:41:d7:84:16:51:40:37:15:a1:eb:
                    70:0c:f1:5a:26:39:11:1e:97:b9:36:32:ce:16:b9:
                    42:ad:31:5b:1e:89:f5:3e:07:0e:d6:fc:9a:46:8e:
                    87:89:90:5c:f3:00:e4:9b:ce:7b:93:fe:9a:d8:65:
                    ec:49:5c:e8:eb:41:3d:53:bc:ce:e8:6d:44:ec:76:
                    3f:e6:9b:13:e4:f8:d0:1c:00:e6:4f:73:e1:b0:27:
                    6f:99
                Exponent: 65537 (0x10001)
        X509v3 extensions:
            X509v3 Subject Key Identifier: 
                8B:30:D2:81:7C:BE:AB:4D:76:37:19:2B:69:5E:DB:F7:81:95:73:F5
            X509v3 Authority Key Identifier: 
                keyid:8B:30:D2:81:7C:BE:AB:4D:76:37:19:2B:69:5E:DB:F7:81:95:73:F5

            X509v3 Basic Constraints: critical
                CA:TRUE
    Signature Algorithm: sha256WithRSAEncryption
         02:4c:80:4f:a4:b5:f4:70:be:82:cf:3a:ed:40:f9:97:17:22:
         07:5d:e0:9b:4e:54:f8:4b:64:99:f5:07:7f:87:5b:9c:60:ec:
         9f:69:e6:00:97:5a:cd:14:59:31:45:be:b7:bd:c4:ce:57:82:
         1a:4a:62:ce:8e:c8:59:d5:62:43:8b:94:c0:ab:c2:cc:3a:a0:
         69:d3:65:15:82:35:de:85:64:e6:7b:d9:3a:22:12:77:f7:71:
         82:86:d7:6c:e5:69:d5:3a:f2:a7:25:f7:dc:f3:6f:cb:eb:85:
         48:44:63:e2:6d:3c:82:eb:3a:c0:e1:bd:9d:3a:12:11:66:1f:
         05:8f:49:65:31:d6:cf:26:06:46:ba:73:c7:ad:61:fc:14:5f:
         68:d1:ee:02:5f:4b:98:b6:5b:0c:98:4e:61:7b:cb:35:ee:44:
         a1:ce:e1:00:a2:56:f0:0d:72:3b:58:66:e8:9a:dc:62:d5:95:
         3e:5a:48:21:a8:7c:f8:1f:5a:13:db:53:33:11:3e:e6:14:39:
         cd:2b:3f:77:5b:ee:f7:0c:59:69:2f:46:9a:34:56:89:05:8e:
         40:94:94:3f:95:f6:fa:f9:1a:e8:1a:80:7b:1d:f7:0c:a1:be:
         e2:38:98:fd:0f:e7:68:4d:7d:fe:ae:5f:e3:32:c6:5d:37:77:
         7a:28:ce:cc
-----BEGIN CERTIFICATE-----
MIIDAzCCAeugAwIBAgIUcExr4KrMAXfyHwSM1HIDpTJfx74wDQYJKoZIhvcNAQEL
BQAwETEPMA0GA1UEAwwGQ0FSb290MB4XDTIyMDUzMDEzMzgyNFoXDTMyMDUyNzEz
MzgyNFowETEPMA0GA1UEAwwGQ0FSb290MIIBIjANBgkqhkiG9w0BAQEFAAOCAQ8A
MIIBCgKCAQEA3JwBMF/FQkgQeDBdZiAOdGH2gnSfb7LtAJ5sIbaDIWtUNOip3IGD
eg6fzD3rl+7Pyg5floHc53WIkS/VZXTC2GdY2EFqX6l53Ck2Srg5INL4qFmf4775
YYAbzmO7ElYGuXdOakBlm79b+CeI9f9A7ke8LY7DpmINGHbR9a8aayVO1FUV8OOX
G2jrdbiA6mTvfuLwXNpt1hZ7D16uckda3wuK4HTBt4INl0HXhBZRQDcVoetwDPFa
JjkRHpe5NjLOFrlCrTFbHon1PgcO1vyaRo6HiZBc8wDkm857k/6a2GXsSVzo60E9
U7zO6G1E7HY/5psT5PjQHADmT3PhsCdvmQIDAQABo1MwUTAdBgNVHQ4EFgQUizDS
gXy+q012NxkraV7b94GVc/UwHwYDVR0jBBgwFoAUizDSgXy+q012NxkraV7b94GV
c/UwDwYDVR0TAQH/BAUwAwEB/zANBgkqhkiG9w0BAQsFAAOCAQEAAkyAT6S19HC+
gs867UD5lxciB13gm05U+EtkmfUHf4dbnGDsn2nmAJdazRRZMUW+t73EzleCGkpi
zo7IWdViQ4uUwKvCzDqgadNlFYI13oVk5nvZOiISd/dxgobXbOVp1TrypyX33PNv
y+uFSERj4m08gus6wOG9nToSEWYfBY9JZTHWzyYGRrpzx61h/BRfaNHuAl9LmLZb
DJhOYXvLNe5Eoc7hAKJW8A1yO1hm6JrcYtWVPlpIIah8+B9aE9tTMxE+5hQ5zSs/
d1vu9wxZaS9GmjRWiQWOQJSUP5X2+vka6BqAex33DKG+4jiY/Q/naE19/q5f4zLG
XTd3eijOzA==
-----END CERTIFICATE-----
