Certificate:
    Data:
        Version: 3 (0x2)
        Serial Number:
            10:50:a0:5c:8e:cf:88:33:b6:b5:d2:1e:38:bf:78:56:2a:f1:09:22
        Signature Algorithm: sha256WithRSAEncryption
        Issuer: CN = CARoot
        Validity
            Not Before: Apr 23 17:08:51 2021 GMT
            Not After : Apr 21 17:08:51 2031 GMT
        Subject: CN = CARoot
        Subject Public Key Info:
            Public Key Algorithm: rsaEncryption
                RSA Public-Key: (2048 bit)
                Modulus:
                    00:c4:92:ca:40:ce:8d:71:dd:e9:2b:e3:3b:b7:17:
                    1d:25:bf:12:66:c0:cb:32:18:32:3e:24:ea:e1:26:
                    1a:97:e8:85:4b:19:8e:c0:0a:da:a6:57:ec:31:a6:
                    a8:68:d9:8e:5c:a2:00:54:30:11:47:a6:0e:84:0d:
                    6d:e3:48:a8:a6:e3:42:63:97:ef:91:c0:3a:bc:db:
                    77:77:3b:d0:45:fc:c5:a8:3a:74:dc:82:4e:83:ed:
                    f9:9d:a0:30:11:0c:d9:20:7b:a6:04:60:a1:9c:41:
                    33:c6:04:d2:a7:e8:b1:46:e6:35:5e:fd:ca:2e:42:
                    2f:f4:0c:f7:6e:8d:60:f5:cf:82:7a:e3:eb:ed:d0:
                    a1:51:a9:78:8d:14:2d:ca:ea:cc:fa:ae:a9:f9:6c:
                    df:5c:cb:83:4a:42:22:5c:48:3e:a6:63:70:43:63:
                    ff:3f:d8:1f:88:e1:91:7b:49:b9:67:10:8a:60:51:
                    24:68:db:68:24:5f:10:a5:a2:b3:95:83:7e:3c:88:
                    9c:1c:52:6a:2c:03:52:aa:90:90:85:21:78:a7:20:
                    b0:e2:dc:79:b4:b7:57:f0:be:df:3b:fc:21:23:ee:
                    ff:63:5d:0b:0d:3d:ab:61:54:8c:2d:96:44:7b:42:
                    10:60:3b:1d:a8:ab:33:01:e7:96:74:08:a6:f9:9d:
                    ba:cf
                Exponent: 65537 (0x10001)
        X509v3 extensions:
            X509v3 Subject Key Identifier: 
                C6:91:71:A0:C9:1F:A9:5A:87:7B:E5:10:FB:9A:2A:12:90:44:7D:A0
            X509v3 Authority Key Identifier: 
                keyid:C6:91:71:A0:C9:1F:A9:5A:87:7B:E5:10:FB:9A:2A:12:90:44:7D:A0

            X509v3 Basic Constraints: critical
                CA:TRUE
    Signature Algorithm: sha256WithRSAEncryption
         5d:c2:68:9e:66:fb:67:39:fc:5e:2f:ba:4c:f0:20:3f:f9:4a:
         e2:b9:05:56:d6:5e:da:01:c7:8b:1a:70:e6:67:61:84:71:67:
         a8:11:bc:7c:4d:58:d0:52:44:71:19:47:87:60:cb:16:12:25:
         b2:b0:95:13:ff:52:00:36:78:2d:d3:ce:4e:c6:7d:1b:e5:8e:
         37:23:8a:ef:c2:44:88:e2:bc:47:c4:ef:23:f5:8b:6d:fc:39:
         3c:cb:7e:70:7c:60:51:33:5a:38:3a:fd:cc:8f:2c:08:d5:07:
         06:f9:89:77:96:8e:60:21:e5:05:98:37:d6:c4:b7:a3:43:9e:
         87:13:9d:12:c4:8f:6a:ad:a9:67:c4:3a:7e:14:77:c3:75:72:
         95:e6:25:a2:14:e7:77:4d:8f:dd:45:ae:f0:f6:f3:fe:2b:cf:
         ea:0e:f8:61:66:45:db:9f:6b:e4:5e:b8:d4:04:41:68:e9:7c:
         a4:7e:c8:1c:4d:ec:49:49:57:a4:46:95:e8:0f:55:ea:08:2e:
         b9:7a:62:e2:be:05:00:d5:81:5f:60:60:58:4e:19:bc:24:ee:
         0e:17:63:da:fd:40:44:c2:5f:7d:e9:26:b4:80:4d:db:88:4f:
         31:a4:16:93:fd:a8:70:94:50:f1:23:92:20:fb:26:c3:9a:71:
         b1:9c:c9:db
-----BEGIN CERTIFICATE-----
MIIDAzCCAeugAwIBAgIUEFCgXI7PiDO2tdIeOL94VirxCSIwDQYJKoZIhvcNAQEL
BQAwETEPMA0GA1UEAwwGQ0FSb290MB4XDTIxMDQyMzE3MDg1MVoXDTMxMDQyMTE3
MDg1MVowETEPMA0GA1UEAwwGQ0FSb290MIIBIjANBgkqhkiG9w0BAQEFAAOCAQ8A
MIIBCgKCAQEAxJLKQM6Ncd3pK+M7txcdJb8SZsDLMhgyPiTq4SYal+iFSxmOwAra
plfsMaaoaNmOXKIAVDARR6YOhA1t40iopuNCY5fvkcA6vNt3dzvQRfzFqDp03IJO
g+35naAwEQzZIHumBGChnEEzxgTSp+ixRuY1Xv3KLkIv9Az3bo1g9c+CeuPr7dCh
Ual4jRQtyurM+q6p+WzfXMuDSkIiXEg+pmNwQ2P/P9gfiOGRe0m5ZxCKYFEkaNto
JF8QpaKzlYN+PIicHFJqLANSqpCQhSF4pyCw4tx5tLdX8L7fO/whI+7/Y10LDT2r
YVSMLZZEe0IQYDsdqKszAeeWdAim+Z26zwIDAQABo1MwUTAdBgNVHQ4EFgQUxpFx
oMkfqVqHe+UQ+5oqEpBEfaAwHwYDVR0jBBgwFoAUxpFxoMkfqVqHe+UQ+5oqEpBE
faAwDwYDVR0TAQH/BAUwAwEB/zANBgkqhkiG9w0BAQsFAAOCAQEAXcJonmb7Zzn8
Xi+6TPAgP/lK4rkFVtZe2gHHixpw5mdhhHFnqBG8fE1Y0FJEcRlHh2DLFhIlsrCV
E/9SADZ4LdPOTsZ9G+WONyOK78JEiOK8R8TvI/WLbfw5PMt+cHxgUTNaODr9zI8s
CNUHBvmJd5aOYCHlBZg31sS3o0OehxOdEsSPaq2pZ8Q6fhR3w3VyleYlohTnd02P
3UWu8Pbz/ivP6g74YWZF259r5F641ARBaOl8pH7IHE3sSUlXpEaV6A9V6gguuXpi
4r4FANWBX2BgWE4ZvCTuDhdj2v1ARMJffekmtIBN24hPMaQWk/2ocJRQ8SOSIPsm
w5pxsZzJ2w==
-----END CERTIFICATE-----
