Certificate:
    Data:
        Version: 3 (0x2)
        Serial Number: 15537474201172114494 (0xd7a0327703a8fc3e)
    Signature Algorithm: sha256WithRSAEncryption
        Issuer: CN=CARoot
        Validity
            Not Before: Feb 22 06:26:33 2023 GMT
            Not After : Feb 19 06:26:33 2033 GMT
        Subject: C=US, ST=CA, O=Apache, OU=Apache Pulsar, CN=superUser
        Subject Public Key Info:
            Public Key Algorithm: rsaEncryption
                Public-Key: (2048 bit)
                Modulus:
                    00:cd:43:7d:98:40:f9:b0:5b:bc:ae:db:c0:0b:ad:
                    26:90:96:e0:62:38:ed:68:b1:70:46:3b:de:44:f9:
                    14:51:86:10:eb:ca:90:e7:88:e8:f9:91:85:e0:dd:
                    b5:b4:14:b9:78:e3:86:d5:54:6d:68:ec:14:92:b4:
                    f8:22:5b:05:3d:ed:31:25:65:08:05:84:ca:e6:0c:
                    21:12:58:32:c7:1a:60:a3:4f:d2:4a:9e:28:19:7c:
                    45:84:00:8c:89:dc:de:8a:e5:4f:88:91:cc:a4:f1:
                    81:45:4c:7d:c2:ff:e2:c1:89:c6:12:73:95:e2:36:
                    bd:db:ae:8b:5a:68:6a:90:51:de:2b:88:5f:aa:67:
                    f4:a8:e3:63:dc:be:19:82:cc:9d:7f:e6:8d:fb:82:
                    be:22:01:3d:56:13:3b:5b:04:b4:e8:c5:18:e6:2e:
                    0d:fa:ba:4a:8d:e8:c6:5a:a1:51:9a:4a:62:d7:af:
                    dd:b4:fc:e2:d5:cd:ae:99:6c:5c:61:56:0b:d7:0c:
                    1a:77:5c:f5:3a:6a:54:b5:9e:33:ac:a9:75:28:9a:
                    76:af:d0:7a:57:00:1b:91:13:31:fd:42:88:21:47:
                    05:10:01:2f:59:bb:c7:3a:d9:e1:58:4c:1b:6c:71:
                    b6:98:ef:dd:03:82:58:a3:32:dc:90:a1:b6:a6:1e:
                    e1:0b
                Exponent: 65537 (0x10001)
        X509v3 extensions:
            X509v3 Subject Alternative Name: 
                DNS:localhost, IP Address:127.0.0.1
    Signature Algorithm: sha256WithRSAEncryption
         b8:fc:d3:8f:8a:e0:6b:74:57:e2:a3:79:b2:18:60:0b:2c:05:
         f9:e3:ae:dd:e9:ad:52:88:52:73:b4:12:b0:39:90:65:12:f5:
         95:0e:5f:4b:f2:06:4a:57:ab:e1:f9:b1:34:68:83:d7:d7:5e:
         69:0a:16:44:ea:1d:97:53:51:10:51:8b:ec:0a:b3:c8:a3:3d:
         85:4d:f4:8f:7d:b3:b5:72:e4:9e:d7:f3:01:bf:66:e1:40:92:
         54:63:16:b6:b5:66:ed:30:38:94:1d:1a:8f:28:34:27:ab:c9:
         5f:d5:16:7e:e4:f5:93:d2:19:35:44:0a:c4:2e:6a:25:38:1d:
         ee:5a:c8:29:fa:96:dc:95:82:38:9e:36:3a:68:34:7b:4e:d9:
         fa:0d:b2:88:a2:6c:4f:03:18:a7:e3:41:67:38:de:e5:f6:ff:
         2a:1c:f0:ec:1a:02:a7:e8:4e:3a:c3:04:72:f8:6a:4f:28:a6:
         cf:0b:a2:db:33:74:d1:10:9e:ec:b4:ac:f8:b1:24:f4:ef:0e:
         05:e4:9d:1b:9a:40:f7:09:66:9c:9d:86:8b:76:96:46:e8:d1:
         dc:10:c7:7d:0b:69:41:dc:a7:8e:e3:a3:36:e3:42:63:93:8c:
         91:80:0d:27:11:1c:2d:ae:fb:92:88:6c:6b:09:40:1a:30:dd:
         8f:ac:0f:62
-----BEGIN CERTIFICATE-----
MIIDCTCCAfGgAwIBAgIJANegMncDqPw+MA0GCSqGSIb3DQEBCwUAMBExDzANBgNV
BAMMBkNBUm9vdDAeFw0yMzAyMjIwNjI2MzNaFw0zMzAyMTkwNjI2MzNaMFcxCzAJ
BgNVBAYTAlVTMQswCQYDVQQIEwJDQTEPMA0GA1UEChMGQXBhY2hlMRYwFAYDVQQL
Ew1BcGFjaGUgUHVsc2FyMRIwEAYDVQQDEwlzdXBlclVzZXIwggEiMA0GCSqGSIb3
DQEBAQUAA4IBDwAwggEKAoIBAQDNQ32YQPmwW7yu28ALrSaQluBiOO1osXBGO95E
+RRRhhDrypDniOj5kYXg3bW0FLl444bVVG1o7BSStPgiWwU97TElZQgFhMrmDCES
WDLHGmCjT9JKnigZfEWEAIyJ3N6K5U+Ikcyk8YFFTH3C/+LBicYSc5XiNr3brota
aGqQUd4riF+qZ/So42PcvhmCzJ1/5o37gr4iAT1WEztbBLToxRjmLg36ukqN6MZa
oVGaSmLXr920/OLVza6ZbFxhVgvXDBp3XPU6alS1njOsqXUomnav0HpXABuREzH9
QoghRwUQAS9Zu8c62eFYTBtscbaY790DglijMtyQobamHuELAgMBAAGjHjAcMBoG
A1UdEQQTMBGCCWxvY2FsaG9zdIcEfwAAATANBgkqhkiG9w0BAQsFAAOCAQEAuPzT
j4rga3RX4qN5shhgCywF+eOu3emtUohSc7QSsDmQZRL1lQ5fS/IGSler4fmxNGiD
19deaQoWROodl1NREFGL7AqzyKM9hU30j32ztXLkntfzAb9m4UCSVGMWtrVm7TA4
lB0ajyg0J6vJX9UWfuT1k9IZNUQKxC5qJTgd7lrIKfqW3JWCOJ42Omg0e07Z+g2y
iKJsTwMYp+NBZzje5fb/Khzw7BoCp+hOOsMEcvhqTyimzwui2zN00RCe7LSs+LEk
9O8OBeSdG5pA9wlmnJ2Gi3aWRujR3BDHfQtpQdynjuOjNuNCY5OMkYANJxEcLa77
kohsawlAGjDdj6wPYg==
-----END CERTIFICATE-----
