Certificate:
    Data:
        Version: 1 (0x0)
        Serial Number:
            0c:26:15:df:8f:71:1d:6a:31:d0:da:af:64:ef:80:de:ac:9a:46:77
        Signature Algorithm: sha256WithRSAEncryption
        Issuer: CN = CARoot
        Validity
            Not Before: Apr 23 17:08:51 2021 GMT
            Not After : Apr 21 17:08:51 2031 GMT
        Subject: C = US, ST = CA, O = Apache, OU = Apache Pulsar, CN = superUser
        Subject Public Key Info:
            Public Key Algorithm: rsaEncryption
                RSA Public-Key: (2048 bit)
                Modulus:
                    00:cd:43:7d:98:40:f9:b0:5b:bc:ae:db:c0:0b:ad:
                    26:90:96:e0:62:38:ed:68:b1:70:46:3b:de:44:f9:
                    14:51:86:10:eb:ca:90:e7:88:e8:f9:91:85:e0:dd:
                    b5:b4:14:b9:78:e3:86:d5:54:6d:68:ec:14:92:b4:
                    f8:22:5b:05:3d:ed:31:25:65:08:05:84:ca:e6:0c:
                    21:12:58:32:c7:1a:60:a3:4f:d2:4a:9e:28:19:7c:
                    45:84:00:8c:89:dc:de:8a:e5:4f:88:91:cc:a4:f1:
                    81:45:4c:7d:c2:ff:e2:c1:89:c6:12:73:95:e2:36:
                    bd:db:ae:8b:5a:68:6a:90:51:de:2b:88:5f:aa:67:
                    f4:a8:e3:63:dc:be:19:82:cc:9d:7f:e6:8d:fb:82:
                    be:22:01:3d:56:13:3b:5b:04:b4:e8:c5:18:e6:2e:
                    0d:fa:ba:4a:8d:e8:c6:5a:a1:51:9a:4a:62:d7:af:
                    dd:b4:fc:e2:d5:cd:ae:99:6c:5c:61:56:0b:d7:0c:
                    1a:77:5c:f5:3a:6a:54:b5:9e:33:ac:a9:75:28:9a:
                    76:af:d0:7a:57:00:1b:91:13:31:fd:42:88:21:47:
                    05:10:01:2f:59:bb:c7:3a:d9:e1:58:4c:1b:6c:71:
                    b6:98:ef:dd:03:82:58:a3:32:dc:90:a1:b6:a6:1e:
                    e1:0b
                Exponent: 65537 (0x10001)
    Signature Algorithm: sha256WithRSAEncryption
         6f:c2:2f:41:a4:a0:45:10:33:61:20:27:d2:74:40:f9:80:3b:
         06:88:91:c3:b8:4d:1a:c4:fd:39:9e:3a:c8:41:de:31:4e:ef:
         8b:06:ce:17:e2:8e:b5:ee:43:92:0a:44:3d:55:e9:85:81:49:
         c9:19:44:15:f1:bd:ec:1e:cb:34:44:b1:01:c0:96:49:30:a4:
         5a:64:44:6e:59:d9:b1:17:bf:01:13:b7:45:53:8c:8d:a7:79:
         fc:19:b4:a9:b5:9b:6f:16:8e:b3:de:5e:2a:db:01:f2:3e:b0:
         8f:23:4f:8f:49:ee:d5:b7:98:54:6e:b5:be:8b:fc:05:87:e3:
         8b:2e:70:28:2c:75:75:c3:76:a4:0d:5e:71:67:30:ec:69:cc:
         2b:43:69:3b:e8:78:89:51:98:07:cb:21:e9:7a:76:a9:b3:e8:
         e6:19:e7:32:ae:3a:b8:24:c4:20:d8:c2:dc:91:99:d1:9b:8f:
         77:3c:e7:a8:53:ee:91:fe:ed:2b:86:18:0a:55:44:46:78:a1:
         78:41:a5:e9:fe:8b:db:bb:10:2e:72:52:b7:54:81:84:8b:f7:
         29:f3:86:29:7f:f8:e2:d8:51:d8:b2:3c:c2:78:7c:a4:11:9c:
         0a:42:64:1b:13:cc:91:1a:08:d9:ed:f1:23:5f:fd:b3:89:bb:
         7a:cc:96:8d
-----BEGIN CERTIFICATE-----
MIIC7zCCAdcCFAwmFd+PcR1qMdDar2TvgN6smkZ3MA0GCSqGSIb3DQEBCwUAMBEx
DzANBgNVBAMMBkNBUm9vdDAeFw0yMTA0MjMxNzA4NTFaFw0zMTA0MjExNzA4NTFa
MFcxCzAJBgNVBAYTAlVTMQswCQYDVQQIEwJDQTEPMA0GA1UEChMGQXBhY2hlMRYw
FAYDVQQLEw1BcGFjaGUgUHVsc2FyMRIwEAYDVQQDEwlzdXBlclVzZXIwggEiMA0G
CSqGSIb3DQEBAQUAA4IBDwAwggEKAoIBAQDNQ32YQPmwW7yu28ALrSaQluBiOO1o
sXBGO95E+RRRhhDrypDniOj5kYXg3bW0FLl444bVVG1o7BSStPgiWwU97TElZQgF
hMrmDCESWDLHGmCjT9JKnigZfEWEAIyJ3N6K5U+Ikcyk8YFFTH3C/+LBicYSc5Xi
Nr3brotaaGqQUd4riF+qZ/So42PcvhmCzJ1/5o37gr4iAT1WEztbBLToxRjmLg36
ukqN6MZaoVGaSmLXr920/OLVza6ZbFxhVgvXDBp3XPU6alS1njOsqXUomnav0HpX
ABuREzH9QoghRwUQAS9Zu8c62eFYTBtscbaY790DglijMtyQobamHuELAgMBAAEw
DQYJKoZIhvcNAQELBQADggEBAG/CL0GkoEUQM2EgJ9J0QPmAOwaIkcO4TRrE/Tme
OshB3jFO74sGzhfijrXuQ5IKRD1V6YWBSckZRBXxveweyzREsQHAlkkwpFpkRG5Z
2bEXvwETt0VTjI2nefwZtKm1m28WjrPeXirbAfI+sI8jT49J7tW3mFRutb6L/AWH
44sucCgsdXXDdqQNXnFnMOxpzCtDaTvoeIlRmAfLIel6dqmz6OYZ5zKuOrgkxCDY
wtyRmdGbj3c856hT7pH+7SuGGApVREZ4oXhBpen+i9u7EC5yUrdUgYSL9ynzhil/
+OLYUdiyPMJ4fKQRnApCZBsTzJEaCNnt8SNf/bOJu3rMlo0=
-----END CERTIFICATE-----
