Certificate:
    Data:
        Version: 3 (0x2)
        Serial Number:
            88:08:98:b3:13:d8:00:99
        Signature Algorithm: sha1WithRSAEncryption
        Issuer: C=US, ST=CA, O=Apache, OU=Pulsar Incubator, CN=localhost
        Validity
            Not Before: Feb 17 02:50:05 2018 GMT
            Not After : Nov 16 00:00:00 2030 GMT
        Subject: C=US, ST=CA, O=Apache, OU=Apache Pulsar, CN=superUser
        Subject Public Key Info:
            Public Key Algorithm: rsaEncryption
            RSA Public Key: (2048 bit)
                Modulus (2048 bit):
                    00:cd:43:7d:98:40:f9:b0:5b:bc:ae:db:c0:0b:ad:
                    26:90:96:e0:62:38:ed:68:b1:70:46:3b:de:44:f9:
                    14:51:86:10:eb:ca:90:e7:88:e8:f9:91:85:e0:dd:
                    b5:b4:14:b9:78:e3:86:d5:54:6d:68:ec:14:92:b4:
                    f8:22:5b:05:3d:ed:31:25:65:08:05:84:ca:e6:0c:
                    21:12:58:32:c7:1a:60:a3:4f:d2:4a:9e:28:19:7c:
                    45:84:00:8c:89:dc:de:8a:e5:4f:88:91:cc:a4:f1:
                    81:45:4c:7d:c2:ff:e2:c1:89:c6:12:73:95:e2:36:
                    bd:db:ae:8b:5a:68:6a:90:51:de:2b:88:5f:aa:67:
                    f4:a8:e3:63:dc:be:19:82:cc:9d:7f:e6:8d:fb:82:
                    be:22:01:3d:56:13:3b:5b:04:b4:e8:c5:18:e6:2e:
                    0d:fa:ba:4a:8d:e8:c6:5a:a1:51:9a:4a:62:d7:af:
                    dd:b4:fc:e2:d5:cd:ae:99:6c:5c:61:56:0b:d7:0c:
                    1a:77:5c:f5:3a:6a:54:b5:9e:33:ac:a9:75:28:9a:
                    76:af:d0:7a:57:00:1b:91:13:31:fd:42:88:21:47:
                    05:10:01:2f:59:bb:c7:3a:d9:e1:58:4c:1b:6c:71:
                    b6:98:ef:dd:03:82:58:a3:32:dc:90:a1:b6:a6:1e:
                    e1:0b
                Exponent: 65537 (0x10001)
        X509v3 extensions:
            X509v3 Basic Constraints: 
                CA:FALSE
            Netscape Comment: 
                OpenSSL Generated Certificate
            X509v3 Subject Key Identifier: 
                53:7C:D5:D1:52:97:9A:D6:D5:EA:EC:B6:0C:9B:43:39:19:73:F6:2C
            X509v3 Authority Key Identifier: 
                keyid:D4:7A:CD:0F:44:1B:16:29:25:14:ED:A2:EF:13:0F:A7:46:09:78:F6

    Signature Algorithm: sha1WithRSAEncryption
        e4:03:82:ff:be:df:7c:73:2a:c5:8f:7d:87:ab:95:b1:2b:e5:
        f7:41:22:4f:28:54:84:7a:cc:fe:70:89:0f:48:e5:8a:17:e1:
        44:ad:12:e9:a1:3a:c7:84:55:f0:7c:29:52:0a:a1:ab:cc:5b:
        31:e5:b2:37:73:3a:8d:f2:f1:fb:e8:f6:a2:b9:ef:11:10:f8:
        31:43:8f:af:ce:09:f4:cb:96:0e:d4:58:42:6e:86:ab:b9:03:
        19:8b:4a:6e:ef:50:c0:7e:c9:0b:1d:2b:42:bf:eb:d0:06:05:
        84:ea:5a:8a:22:5c:56:fa:da:2a:9f:8a:b2:90:66:8c:5e:01:
        87:45
-----BEGIN CERTIFICATE-----
MIIDLjCCApegAwIBAgIJAIgImLMT2ACZMA0GCSqGSIb3DQEBBQUAMFoxCzAJBgNV
BAYTAlVTMQswCQYDVQQIEwJDQTEPMA0GA1UEChMGQXBhY2hlMRkwFwYDVQQLExBQ
dWxzYXIgSW5jdWJhdG9yMRIwEAYDVQQDEwlsb2NhbGhvc3QwHhcNMTgwMjE3MDI1
MDA1WhcNMzAxMTE2MDAwMDAwWjBXMQswCQYDVQQGEwJVUzELMAkGA1UECBMCQ0Ex
DzANBgNVBAoTBkFwYWNoZTEWMBQGA1UECxMNQXBhY2hlIFB1bHNhcjESMBAGA1UE
AxMJc3VwZXJVc2VyMIIBIjANBgkqhkiG9w0BAQEFAAOCAQ8AMIIBCgKCAQEAzUN9
mED5sFu8rtvAC60mkJbgYjjtaLFwRjveRPkUUYYQ68qQ54jo+ZGF4N21tBS5eOOG
1VRtaOwUkrT4IlsFPe0xJWUIBYTK5gwhElgyxxpgo0/SSp4oGXxFhACMidzeiuVP
iJHMpPGBRUx9wv/iwYnGEnOV4ja9266LWmhqkFHeK4hfqmf0qONj3L4Zgsydf+aN
+4K+IgE9VhM7WwS06MUY5i4N+rpKjejGWqFRmkpi16/dtPzi1c2umWxcYVYL1wwa
d1z1OmpUtZ4zrKl1KJp2r9B6VwAbkRMx/UKIIUcFEAEvWbvHOtnhWEwbbHG2mO/d
A4JYozLckKG2ph7hCwIDAQABo3sweTAJBgNVHRMEAjAAMCwGCWCGSAGG+EIBDQQf
Fh1PcGVuU1NMIEdlbmVyYXRlZCBDZXJ0aWZpY2F0ZTAdBgNVHQ4EFgQUU3zV0VKX
mtbV6uy2DJtDORlz9iwwHwYDVR0jBBgwFoAU1HrND0QbFiklFO2i7xMPp0YJePYw
DQYJKoZIhvcNAQEFBQADgYEA5AOC/77ffHMqxY99h6uVsSvl90EiTyhUhHrM/nCJ
D0jlihfhRK0S6aE6x4RV8HwpUgqhq8xbMeWyN3M6jfLx++j2ornvERD4MUOPr84J
9MuWDtRYQm6Gq7kDGYtKbu9QwH7JCx0rQr/r0AYFhOpaiiJcVvraKp+KspBmjF4B
h0U=
-----END CERTIFICATE-----
