Certificate:
    Data:
        Version: 3 (0x2)
        Serial Number:
            61:e6:1b:07:90:6a:4f:f7:cd:46:b9:59:1d:3e:1c:39:0d:f2:5e:06
        Signature Algorithm: sha256WithRSAEncryption
        Issuer: CN = CARoot
        Validity
            Not Before: May 30 13:38:24 2022 GMT
            Not After : May 27 13:38:24 2032 GMT
        Subject: C = US, ST = CA, O = Apache, OU = Apache Pulsar, CN = superUser
        Subject Public Key Info:
            Public Key Algorithm: rsaEncryption
                RSA Public-Key: (2048 bit)
                Modulus:
                    00:cd:43:7d:98:40:f9:b0:5b:bc:ae:db:c0:0b:ad:
                    26:90:96:e0:62:38:ed:68:b1:70:46:3b:de:44:f9:
                    14:51:86:10:eb:ca:90:e7:88:e8:f9:91:85:e0:dd:
                    b5:b4:14:b9:78:e3:86:d5:54:6d:68:ec:14:92:b4:
                    f8:22:5b:05:3d:ed:31:25:65:08:05:84:ca:e6:0c:
                    21:12:58:32:c7:1a:60:a3:4f:d2:4a:9e:28:19:7c:
                    45:84:00:8c:89:dc:de:8a:e5:4f:88:91:cc:a4:f1:
                    81:45:4c:7d:c2:ff:e2:c1:89:c6:12:73:95:e2:36:
                    bd:db:ae:8b:5a:68:6a:90:51:de:2b:88:5f:aa:67:
                    f4:a8:e3:63:dc:be:19:82:cc:9d:7f:e6:8d:fb:82:
                    be:22:01:3d:56:13:3b:5b:04:b4:e8:c5:18:e6:2e:
                    0d:fa:ba:4a:8d:e8:c6:5a:a1:51:9a:4a:62:d7:af:
                    dd:b4:fc:e2:d5:cd:ae:99:6c:5c:61:56:0b:d7:0c:
                    1a:77:5c:f5:3a:6a:54:b5:9e:33:ac:a9:75:28:9a:
                    76:af:d0:7a:57:00:1b:91:13:31:fd:42:88:21:47:
                    05:10:01:2f:59:bb:c7:3a:d9:e1:58:4c:1b:6c:71:
                    b6:98:ef:dd:03:82:58:a3:32:dc:90:a1:b6:a6:1e:
                    e1:0b
                Exponent: 65537 (0x10001)
        X509v3 extensions:
            X509v3 Subject Alternative Name: 
                DNS:localhost, IP Address:127.0.0.1
    Signature Algorithm: sha256WithRSAEncryption
         90:62:ba:7b:6f:45:95:7a:71:2f:e7:88:0c:64:b8:6c:05:86:
         7f:47:08:ce:d6:e2:5a:32:13:0c:82:ad:a7:af:f0:a2:f7:86:
         79:87:1a:89:78:95:b1:9f:be:c5:8b:39:fd:12:94:b6:e1:69:
         ff:fa:1e:c3:82:d8:6c:03:80:45:ac:1c:06:70:bb:77:c3:41:
         5f:b6:9d:fe:36:6f:ae:23:6c:bf:43:79:8e:74:85:8e:96:89:
         a9:c4:6d:d9:fa:05:ba:a8:11:7c:82:45:94:3d:9f:b6:7c:2f:
         4e:6d:37:c3:fb:79:7e:0c:d2:15:fa:0e:ea:2d:c9:24:f3:34:
         13:6f:db:d7:55:e1:0c:2f:7e:fe:4c:3b:fa:7e:03:26:0f:6a:
         95:d2:22:ce:27:71:6a:97:ac:36:0a:20:ec:19:a0:78:23:0c:
         54:f3:b1:dd:33:36:7c:b7:61:23:70:8f:7f:c8:5f:e8:9e:b5:
         02:31:4d:b3:40:b0:7b:b2:ee:14:a7:69:22:8b:38:85:5d:04:
         6e:d5:44:41:31:a7:4b:71:86:fb:81:cd:3d:db:96:23:0b:bc:
         e1:67:46:0e:87:86:91:4e:1a:35:37:af:a4:ac:9a:de:e3:4f:
         82:47:f1:c4:16:58:11:8f:76:d2:4d:df:a1:c6:a2:8f:33:6d:
         72:15:28:76
-----BEGIN CERTIFICATE-----
MIIDFDCCAfygAwIBAgIUYeYbB5BqT/fNRrlZHT4cOQ3yXgYwDQYJKoZIhvcNAQEL
BQAwETEPMA0GA1UEAwwGQ0FSb290MB4XDTIyMDUzMDEzMzgyNFoXDTMyMDUyNzEz
MzgyNFowVzELMAkGA1UEBhMCVVMxCzAJBgNVBAgTAkNBMQ8wDQYDVQQKEwZBcGFj
aGUxFjAUBgNVBAsTDUFwYWNoZSBQdWxzYXIxEjAQBgNVBAMTCXN1cGVyVXNlcjCC
ASIwDQYJKoZIhvcNAQEBBQADggEPADCCAQoCggEBAM1DfZhA+bBbvK7bwAutJpCW
4GI47WixcEY73kT5FFGGEOvKkOeI6PmRheDdtbQUuXjjhtVUbWjsFJK0+CJbBT3t
MSVlCAWEyuYMIRJYMscaYKNP0kqeKBl8RYQAjInc3orlT4iRzKTxgUVMfcL/4sGJ
xhJzleI2vduui1poapBR3iuIX6pn9KjjY9y+GYLMnX/mjfuCviIBPVYTO1sEtOjF
GOYuDfq6So3oxlqhUZpKYtev3bT84tXNrplsXGFWC9cMGndc9TpqVLWeM6ypdSia
dq/QelcAG5ETMf1CiCFHBRABL1m7xzrZ4VhMG2xxtpjv3QOCWKMy3JChtqYe4QsC
AwEAAaMeMBwwGgYDVR0RBBMwEYIJbG9jYWxob3N0hwR/AAABMA0GCSqGSIb3DQEB
CwUAA4IBAQCQYrp7b0WVenEv54gMZLhsBYZ/RwjO1uJaMhMMgq2nr/Ci94Z5hxqJ
eJWxn77Fizn9EpS24Wn/+h7DgthsA4BFrBwGcLt3w0Fftp3+Nm+uI2y/Q3mOdIWO
lompxG3Z+gW6qBF8gkWUPZ+2fC9ObTfD+3l+DNIV+g7qLckk8zQTb9vXVeEML37+
TDv6fgMmD2qV0iLOJ3Fql6w2CiDsGaB4IwxU87HdMzZ8t2EjcI9/yF/onrUCMU2z
QLB7su4Up2kiiziFXQRu1URBMadLcYb7gc0925YjC7zhZ0YOh4aRTho1N6+krJre
40+CR/HEFlgRj3bSTd+hxqKPM21yFSh2
-----END CERTIFICATE-----
