Certificate:
    Data:
        Version: 3 (0x2)
        Serial Number:
            88:08:98:b3:13:d8:00:94
        Signature Algorithm: sha1WithRSAEncryption
        Issuer: C=US, ST=CA, O=Apache, OU=Pulsar Incubator, CN=localhost
        Validity
            Not Before: Feb 17 01:37:33 2018 GMT
            Not After : Feb 16 01:37:33 2021 GMT
        Subject: C=US, ST=CA, O=Apache, OU=Pulsar Incubator, CN=localhost
        Subject Public Key Info:
            Public Key Algorithm: rsaEncryption
            RSA Public Key: (1024 bit)
                Modulus (1024 bit):
                    00:ea:16:8d:a5:b1:19:61:34:54:07:02:60:4e:6d:
                    54:92:08:fd:fb:23:79:9c:05:bf:14:f7:bc:aa:db:
                    2b:42:a4:35:74:86:e3:00:ad:8b:18:79:73:7d:f2:
                    d1:74:dd:74:bc:b8:a2:4c:80:c9:f3:80:ce:bf:f8:
                    6d:97:f5:05:4f:f4:b2:99:50:e8:d8:b0:c4:57:a0:
                    e7:dc:82:57:75:2a:a2:02:21:76:f7:37:c2:dc:7c:
                    4c:36:a6:73:6f:dc:75:48:72:ad:fa:98:02:70:b2:
                    5e:a2:83:cc:c3:8d:20:a7:1e:bc:d7:1e:c1:d1:7e:
                    39:35:4b:f5:be:6b:c1:0f:f9
                Exponent: 65537 (0x10001)
        X509v3 extensions:
            X509v3 Subject Key Identifier: 
                D4:7A:CD:0F:44:1B:16:29:25:14:ED:A2:EF:13:0F:A7:46:09:78:F6
            X509v3 Authority Key Identifier: 
                keyid:D4:7A:CD:0F:44:1B:16:29:25:14:ED:A2:EF:13:0F:A7:46:09:78:F6
                DirName:/C=US/ST=CA/O=Apache/OU=Pulsar Incubator/CN=localhost
                serial:88:08:98:B3:13:D8:00:94

            X509v3 Basic Constraints: 
                CA:TRUE
    Signature Algorithm: sha1WithRSAEncryption
        5e:30:c5:7b:30:3e:1e:16:cd:ba:66:f1:2a:19:13:8a:1a:00:
        08:f4:1e:8c:e4:3d:57:13:65:96:bf:07:58:55:52:37:3e:aa:
        2c:19:de:ee:c3:92:6e:79:f3:06:0e:9a:7b:e0:02:50:c3:ef:
        3b:84:ea:8f:e0:f0:16:a6:a6:67:8b:be:73:0e:5d:f7:88:39:
        d3:d4:df:85:ad:7c:c1:4f:fa:55:55:6f:c2:48:4e:8e:82:fa:
        72:3b:8e:9d:dc:f7:2e:9d:47:8e:e5:c9:a2:ee:b1:76:94:15:
        7c:7a:62:bc:06:45:fa:61:2e:33:8c:18:3e:e9:d5:90:a5:a6:
        80:5a
-----BEGIN CERTIFICATE-----
MIIC8jCCAlugAwIBAgIJAIgImLMT2ACUMA0GCSqGSIb3DQEBBQUAMFoxCzAJBgNV
BAYTAlVTMQswCQYDVQQIEwJDQTEPMA0GA1UEChMGQXBhY2hlMRkwFwYDVQQLExBQ
dWxzYXIgSW5jdWJhdG9yMRIwEAYDVQQDEwlsb2NhbGhvc3QwHhcNMTgwMjE3MDEz
NzMzWhcNMjEwMjE2MDEzNzMzWjBaMQswCQYDVQQGEwJVUzELMAkGA1UECBMCQ0Ex
DzANBgNVBAoTBkFwYWNoZTEZMBcGA1UECxMQUHVsc2FyIEluY3ViYXRvcjESMBAG
A1UEAxMJbG9jYWxob3N0MIGfMA0GCSqGSIb3DQEBAQUAA4GNADCBiQKBgQDqFo2l
sRlhNFQHAmBObVSSCP37I3mcBb8U97yq2ytCpDV0huMArYsYeXN98tF03XS8uKJM
gMnzgM6/+G2X9QVP9LKZUOjYsMRXoOfcgld1KqICIXb3N8LcfEw2pnNv3HVIcq36
mAJwsl6ig8zDjSCnHrzXHsHRfjk1S/W+a8EP+QIDAQABo4G/MIG8MB0GA1UdDgQW
BBTUes0PRBsWKSUU7aLvEw+nRgl49jCBjAYDVR0jBIGEMIGBgBTUes0PRBsWKSUU
7aLvEw+nRgl49qFepFwwWjELMAkGA1UEBhMCVVMxCzAJBgNVBAgTAkNBMQ8wDQYD
VQQKEwZBcGFjaGUxGTAXBgNVBAsTEFB1bHNhciBJbmN1YmF0b3IxEjAQBgNVBAMT
CWxvY2FsaG9zdIIJAIgImLMT2ACUMAwGA1UdEwQFMAMBAf8wDQYJKoZIhvcNAQEF
BQADgYEAXjDFezA+HhbNumbxKhkTihoACPQejOQ9VxNllr8HWFVSNz6qLBne7sOS
bnnzBg6ae+ACUMPvO4Tqj+DwFqamZ4u+cw5d94g509Tfha18wU/6VVVvwkhOjoL6
cjuOndz3Lp1HjuXJou6xdpQVfHpivAZF+mEuM4wYPunVkKWmgFo=
-----END CERTIFICATE-----
